
rtc.elf:     file format elf32-littleriscv

Contents of section .text:
 100000 93000000 93010000 13020000 93020000  ................
 100010 13030000 93030000 13040000 93040000  ................
 100020 13050000 93050000 13060000 93060000  ................
 100030 13070000 93070000 13080000 93080000  ................
 100040 13090000 93090000 130a0000 930a0000  ................
 100050 130b0000 930b0000 130c0000 930c0000  ................
 100060 130d0000 930d0000 130e0000 930e0000  ................
 100070 130f0000 930f0000 17250000 1305c5b1  .........%......
 100080 93050000 13060000 63dcc500 83260500  ........c....&..
 100090 23a0d500 13054500 93854500 e3c8c5fe  #.....E...E.....
 1000a0 ef10901b 6f000000 b7020002 13030012  ....o...........
 1000b0 23906200 a3810200 63080602 130f8000  #.b.....c.......
 1000c0 9373f60f 93de7300 2380d201 93ee0e01  .s....s.#.......
 1000d0 2380d201 93931300 93f3f30f 130fffff  #...............
 1000e0 e3120ffe 23806200 63860504 130f8000  ....#.b.c.......
 1000f0 83430500 93de7300 2380d201 93ee0e01  .C....s.#.......
 100100 2380d201 83ce0200 93fe2e00 93de1e00  #...............
 100110 93931300 b3e3d301 93f3f30f 130fffff  ................
 100120 e31a0ffc 23007500 13051500 9385f5ff  ....#.u.........
 100130 6ff09ffb 13030008 a3816200 67800000  o.........b.g...
 100140 b7020003 9382820d 370e0003 93032000  ........7..... .
 100150 930e2026 130f1000 23200500 13030006  .. &....# ......
 100160 23806200 938efeff e39e0efe 13000000  #.b.............
 100170 13000000 2300ee01 03854200 67800000  ....#.....B.g...
 100180 130101fe 232e8100 13040102 2326a4fe  ....#.......#&..
 100190 b7070003 9387670d 23900700 b7070003  ......g.#.......
 1001a0 9387470d 0327c4fe 13170701 13570701  ..G..'.......W..
 1001b0 2390e700 b7070003 9387670d 13070008  #.........g.....
 1001c0 2390e700 13000000 0324c101 13010102  #........$......
 1001d0 67800000 130101fd 23268102 13040103  g.......#&......
 1001e0 93070500 13870500 a30ff4fc 93070700  ................
 1001f0 230ff4fc b7070003 9387c70d 0347f4fd  #............G..
 100200 23a0e700 b7070003 9387870d 13070009  #...............
 100210 23a0e700 13000000 b7070003 9387870d  #...............
 100220 83a70700 93f72700 e39807fe b7070003  ......'.........
 100230 9387870d 83a70700 13f70708 93071000  ................
 100240 631ef700 b7070003 9387870d 13070004  c...............
 100250 23a0e700 93070000 6f000007 b7070003  #.......o.......
 100260 9387c70d 0347e4fd 23a0e700 b7070003  .....G..#.......
 100270 9387870d 13070001 23a0e700 13000000  ........#.......
 100280 b7070003 9387870d 83a70700 93f72700  ..............'.
 100290 e39807fe b7070003 9387870d 13070004  ................
 1002a0 23a0e700 b7070003 9387870d 83a70700  #...............
 1002b0 13f70708 93071000 6316f700 93070000  ........c.......
 1002c0 6f008000 93071000 13850700 0324c102  o............$..
 1002d0 13010103 67800000 130101fe 232e8100  ....g.......#...
 1002e0 13040102 2326a4fe 2324b4fe 2322c4fe  ....#&..#$..#"..
 1002f0 0327c4fe b7070003 9387c70d 1377f70f  .'...........w..
 100300 23a0e700 b7070003 9387870d 13070009  #...............
 100310 23a0e700 13000000 b7070003 9387870d  #...............
 100320 83a70700 93f72700 e39807fe b7070003  ......'.........
 100330 9387870d 83a70700 13f70708 93071000  ................
 100340 631ef700 b7070003 9387870d 13070004  c...............
 100350 23a0e700 93070000 6f00000e 032784fe  #.......o....'..
 100360 b7070003 9387c70d 1377f70f 23a0e700  .........w..#...
 100370 b7070003 9387870d 13070001 23a0e700  ............#...
 100380 13000000 b7070003 9387870d 83a70700  ................
 100390 93f72700 e39807fe b7070003 9387870d  ..'.............
 1003a0 83a70700 13f70708 93071000 631ef700  ............c...
 1003b0 b7070003 9387870d 13070004 23a0e700  ............#...
 1003c0 93070000 6f004007 032744fe b7070003  ....o.@..'D.....
 1003d0 9387c70d 1377f70f 23a0e700 b7070003  .....w..#.......
 1003e0 9387870d 13070001 23a0e700 13000000  ........#.......
 1003f0 b7070003 9387870d 83a70700 93f72700  ..............'.
 100400 e39807fe b7070003 9387870d 13070004  ................
 100410 23a0e700 b7070003 9387870d 83a70700  #...............
 100420 13f70708 93071000 6316f700 93070000  ........c.......
 100430 6f008000 93071000 13850700 0324c101  o............$..
 100440 13010102 67800000 130101fe 232e8100  ....g.......#...
 100450 13040102 2326a4fe 2324b4fe 2322c4fe  ....#&..#$..#"..
 100460 0327c4fe b7070003 9387c70d 1377f70f  .'...........w..
 100470 23a0e700 b7070003 9387870d 13070009  #...............
 100480 23a0e700 13000000 b7070003 9387870d  #...............
 100490 83a70700 93f72700 e39807fe b7070003  ......'.........
 1004a0 9387870d 83a70700 13f70708 93071000  ................
 1004b0 631ef700 b7070003 9387870d 13070004  c...............
 1004c0 23a0e700 93070000 6f00c013 832784fe  #.......o....'..
 1004d0 13d78700 b7070003 9387c70d 1377f70f  .............w..
 1004e0 23a0e700 b7070003 9387870d 13070001  #...............
 1004f0 23a0e700 13000000 b7070003 9387870d  #...............
 100500 83a70700 93f72700 e39807fe b7070003  ......'.........
 100510 9387870d 83a70700 13f70708 93071000  ................
 100520 631ef700 b7070003 9387870d 13070004  c...............
 100530 23a0e700 93070000 6f00c00c 032784fe  #.......o....'..
 100540 b7070003 9387c70d 1377f70f 23a0e700  .........w..#...
 100550 b7070003 9387870d 13070001 23a0e700  ............#...
 100560 13000000 b7070003 9387870d 83a70700  ................
 100570 93f72700 e39807fe b7070003 9387870d  ..'.............
 100580 83a70700 13f70708 93071000 631ef700  ............c...
 100590 b7070003 9387870d 13070004 23a0e700  ............#...
 1005a0 93070000 6f000006 b7070003 9387c70d  ....o...........
 1005b0 032744fe 23a0e700 b7070003 9387870d  .'D.#...........
 1005c0 13070005 23a0e700 13000000 b7070003  ....#...........
 1005d0 9387870d 83a70700 93f72700 e39807fe  ..........'.....
 1005e0 b7070003 9387870d 83a70700 13f70708  ................
 1005f0 93071000 6316f700 93070000 6f008000  ....c.......o...
 100600 93071000 13850700 0324c101 13010102  .........$......
 100610 67800000 130101fe 232e8100 13040102  g.......#.......
 100620 2326a4fe 2324b4fe b7070003 9387c70d  #&..#$..........
 100630 0327c4fe 23a0e700 b7070003 9387870d  .'..#...........
 100640 83a70700 13f72700 93071000 631cf700  ......'.....c...
 100650 b7070003 1307f000 23a0e700 93070000  ........#.......
 100660 6f00c01d b7070003 9387870d 13070009  o...............
 100670 23a0e700 13000000 b7070003 9387870d  #...............
 100680 83a70700 93f72700 e39807fe b7070003  ......'.........
 100690 9387870d 83a70700 13f70708 93071000  ................
 1006a0 631ef700 b7070003 9387870d 13070004  c...............
 1006b0 23a0e700 93070000 6f004018 b7070003  #.......o.@.....
 1006c0 9387c70d 032784fe 23a0e700 b7070003  .....'..#.......
 1006d0 9387870d 83a70700 13f72700 93071000  ..........'.....
 1006e0 631cf700 b7070003 1307f000 23a0e700  c...........#...
 1006f0 93070000 6f008014 b7070003 9387870d  ....o...........
 100700 13070001 23a0e700 13000000 b7070003  ....#...........
 100710 9387870d 83a70700 93f72700 e39807fe  ..........'.....
 100720 b7070003 9387870d 83a70700 13f70708  ................
 100730 93071000 631ef700 b7070003 9387870d  ....c...........
 100740 13070004 23a0e700 93070000 6f00000f  ....#.......o...
 100750 0327c4fe b7070003 9387c70d 13671700  .'...........g..
 100760 23a0e700 b7070003 9387870d 83a70700  #...............
 100770 13f72700 93071000 631cf700 b7070003  ..'.....c.......
 100780 1307f000 23a0e700 93070000 6f00000b  ....#.......o...
 100790 b7070003 9387870d 13070009 23a0e700  ............#...
 1007a0 13000000 b7070003 9387870d 83a70700  ................
 1007b0 93f72700 e39807fe b7070003 9387870d  ..'.............
 1007c0 83a70700 13f70708 93071000 631ef700  ............c...
 1007d0 b7070003 9387870d 13070004 23a0e700  ............#...
 1007e0 93070000 6f008005 b7070003 9387870d  ....o...........
 1007f0 13070006 23a0e700 13000000 b7070003  ....#...........
 100800 9387870d 83a70700 93f72700 e39807fe  ..........'.....
 100810 b7070003 9387870d 83a70700 13f70708  ................
 100820 93071000 6316f700 93070000 6f000001  ....c.......o...
 100830 b7070003 9387c70d 83a70700 13850700  ................
 100840 0324c101 13010102 67800000 130101fd  .$......g.......
 100850 23261102 23248102 23229102 13040103  #&..#$..#"......
 100860 232ea4fc 93050100 93840500 b7051000  #...............
 100870 13850514 b7051000 93850518 b305b540  ...............@
 100880 93d52540 9385f5ff 2322b4fe b7051000  ..%@....#"......
 100890 13850514 b7051000 93850518 b305b540  ...............@
 1008a0 93d52540 13830500 93030000 9355b301  ..%@.........U..
 1008b0 93965300 b3e6d500 13165300 b7061000  ..S.......S.....
 1008c0 13860614 b7061000 93860618 b306d640  ...............@
 1008d0 93d62640 13880600 93080000 9356b801  ..&@.........V..
 1008e0 93975800 b3e7f600 13175800 b7071000  ..X.......X.....
 1008f0 13870714 b7071000 93870718 b307f740  ...............@
 100900 93873700 93f7c7ff 9387f700 93d74700  ..7...........G.
 100910 93974700 3301f140 93070100 93873700  ..G.3..@......7.
 100920 93d72700 93972700 2320f4fe b7071000  ..'...'.# ......
 100930 93870714 2324f4fe 832704fe 2326f4fe  ....#$...'..#&..
 100940 6f004002 032784fe 93074700 2324f4fe  o.@..'....G.#$..
 100950 8327c4fe 93864700 2326d4fe 03270700  .'....G.#&...'..
 100960 23a0e700 032784fe b7071000 93870718  #....'..........
 100970 e31af7fc 832704fe 0325c4fd e7800700  .....'...%......
 100980 13810400 13000000 130104fd 8320c102  ............. ..
 100990 03248102 83244102 13010103 67800000  .$...$A.....g...
 1009a0 130101fe 232e1100 232c8100 13040102  ....#...#,......
 1009b0 2326a4fe 2324b4fe 2322c4fe b7070003  #&..#$..#"......
 1009c0 9387c70d 0327c4fe 23a0e700 b7070003  .....'..#.......
 1009d0 9387870d 13070009 23a0e700 13000000  ........#.......
 1009e0 b7070003 9387870d 83a70700 93f72700  ..............'.
 1009f0 e39807fe b7070003 9387870d 83a70700  ................
 100a00 13f70708 93071000 631ef700 b7070003  ........c.......
 100a10 9387870d 13070004 23a0e700 93070000  ........#.......
 100a20 6f004018 832784fe 13d78700 b7070003  o.@..'..........
 100a30 9387c70d 1377f70f 23a0e700 b7070003  .....w..#.......
 100a40 9387870d 13070001 23a0e700 13000000  ........#.......
 100a50 b7070003 9387870d 83a70700 93f72700  ..............'.
 100a60 e39807fe b7070003 9387870d 83a70700  ................
 100a70 13f70708 93071000 631ef700 b7070003  ........c.......
 100a80 9387870d 13070004 23a0e700 93070000  ........#.......
 100a90 6f004011 032784fe b7070003 9387c70d  o.@..'..........
 100aa0 1377f70f 23a0e700 b7070003 9387870d  .w..#...........
 100ab0 13070001 23a0e700 13000000 b7070003  ....#...........
 100ac0 9387870d 83a70700 93f72700 e39807fe  ..........'.....
 100ad0 b7070003 9387870d 83a70700 13f70708  ................
 100ae0 93071000 631ef700 b7070003 9387870d  ....c...........
 100af0 13070004 23a0e700 93070000 6f00800a  ....#.......o...
 100b00 0327c4fe b7070003 9387c70d 13671700  .'...........g..
 100b10 23a0e700 b7070003 9387870d 13070009  #...............
 100b20 23a0e700 13000000 b7070003 9387870d  #...............
 100b30 83a70700 93f72700 e39807fe b7070003  ......'.........
 100b40 9387870d 83a70700 13f70708 93071000  ................
 100b50 631ef700 b7070003 9387870d 13070004  c...............
 100b60 23a0e700 93070000 6f00c003 032544fe  #.......o....%D.
 100b70 eff0dfcd b7070003 1307e000 23a0e700  ............#...
 100b80 b7070003 9387870d 83a70700 13f70708  ................
 100b90 93071000 6316f700 93070000 6f008000  ....c.......o...
 100ba0 93071000 13850700 8320c101 03248101  ......... ...$..
 100bb0 13010102 67800000 130101fd 23268102  ....g.......#&..
 100bc0 13040103 232ea4fc 232cb4fc 232ac4fc  ....#...#,..#*..
 100bd0 2328d4fc 0327c4fd b7070003 9387c70d  #(...'..........
 100be0 1377f70f 2380e700 b7070003 9387870d  .w..#...........
 100bf0 130700f9 2380e700 13000000 b7070003  ....#...........
 100c00 9387870d 83c70700 93f7f70f 93f72700  ..............'.
 100c10 e39607fe b7070003 9387870d 83c70700  ................
 100c20 93f7f70f 13f70708 93071000 631ef700  ............c...
 100c30 b7070003 9387870d 13070004 2380e700  ............#...
 100c40 93070000 6f00401c 032784fd b7070003  ....o.@..'......
 100c50 9387c70d 1377f70f 2380e700 b7070003  .....w..#.......
 100c60 9387870d 13070001 2380e700 13000000  ........#.......
 100c70 b7070003 9387870d 83c70700 93f7f70f  ................
 100c80 93f72700 e39607fe b7070003 9387870d  ..'.............
 100c90 83c70700 93f7f70f 13f70708 93071000  ................
 100ca0 631ef700 b7070003 9387870d 13070004  c...............
 100cb0 2380e700 93070000 6f000015 8327c4fd  #.......o....'..
 100cc0 13f7f70f b7070003 9387c70d 13671700  .............g..
 100cd0 1377f70f 2380e700 b7070003 9387870d  .w..#...........
 100ce0 130700f9 2380e700 13000000 b7070003  ....#...........
 100cf0 9387870d 83c70700 93f7f70f 93f72700  ..............'.
 100d00 e39607fe b7070003 9387870d 83c70700  ................
 100d10 93f7f70f 13f70708 93071000 631ef700  ............c...
 100d20 b7070003 9387870d 13070004 2380e700  ............#...
 100d30 93070000 6f00400d 232604fe 6f00c00b  ....o.@.#&..o...
 100d40 832704fd 9387f7ff 0327c4fe 635cf700  .'.......'..c\..
 100d50 b7070003 9387870d 13070002 2380e700  ............#...
 100d60 6f004001 b7070003 9387870d 13070006  o.@.............
 100d70 2380e700 13000000 b7070003 9387870d  #...............
 100d80 83c70700 93f7f70f 93f72700 e39607fe  ..........'.....
 100d90 b7070003 9387870d 83c70700 93f7f70f  ................
 100da0 13f70708 93071000 631ef700 b7070003  ........c.......
 100db0 9387870d 13070004 2380e700 93070000  ........#.......
 100dc0 6f008004 b7070003 9387c70d 83c70700  o...............
 100dd0 93f6f70f 8327c4fe 93972700 032744fd  .....'....'..'D.
 100de0 b307f700 13870600 23a0e700 8327c4fe  ........#....'..
 100df0 93871700 2326f4fe 0327c4fe 832704fd  ....#&...'...'..
 100e00 e340f7f4 93071000 13850700 0324c102  .@...........$..
 100e10 13010103 67800000 130101fd 23261102  ....g.......#&..
 100e20 23248102 23229102 13040103 232ea4fc  #$..#"......#...
 100e30 232cb4fc 93060600 a30bd4fc 93060100  #,..............
 100e40 93840600 b7061000 13860614 b7061000  ................
 100e50 9386860a b306d640 93d62640 9386f6ff  .......@..&@....
 100e60 2322d4fe b7061000 13860614 b7061000  #"..............
 100e70 9386860a b306d640 93d62640 138e0600  .......@..&@....
 100e80 930e0000 9356be01 93985e00 b3e81601  .....V....^.....
 100e90 13185e00 b7061000 13860614 b7061000  ..^.............
 100ea0 9386860a b306d640 93d62640 13830600  .......@..&@....
 100eb0 93030000 9356b301 93975300 b3e7f600  .....V....S.....
 100ec0 13175300 b7071000 13870714 b7071000  ..S.............
 100ed0 9387870a b307f740 93873700 93f7c7ff  .......@..7.....
 100ee0 9387f700 93d74700 93974700 3301f140  ......G...G.3..@
 100ef0 93070100 93873700 93d72700 93972700  ......7...'...'.
 100f00 2320f4fe b7071000 9387870a 2324f4fe  # ..........#$..
 100f10 832704fe 2326f4fe 6f004002 032784fe  .'..#&..o.@..'..
 100f20 93074700 2324f4fe 8327c4fe 93864700  ..G.#$...'....G.
 100f30 2326d4fe 03270700 23a0e700 032784fe  #&...'..#....'..
 100f40 b7071000 93870714 e31af7fc 832704fe  .............'..
 100f50 93860700 832784fd 034774fd 13060700  .....'...Gt.....
 100f60 93850700 0325c4fd e7800600 13810400  .....%..........
 100f70 13000000 130104fd 8320c102 03248102  ......... ...$..
 100f80 83244102 13010103 67800000 130101fd  .$A.....g.......
 100f90 23261102 23248102 13040103 93070500  #&..#$..........
 100fa0 a30ff4fc b7070002 03a70700 b70781ff  ................
 100fb0 9387f7ff b376f700 8347f4fd 93970701  .....v...G......
 100fc0 13870700 b7070f00 3377f700 b7070002  ........3w......
 100fd0 33e7e600 23a0e700 b7070001 93870726  3...#..........&
 100fe0 2324f4fe 8347f4fd 93e70707 93f7f70f  #$...G..........
 100ff0 93978701 2326f4fe 930784fe 13060005  ....#&..........
 101000 93055000 13850700 eff01fe1 13000000  ..P.............
 101010 8320c102 03248102 13010103 67800000  . ...$......g...
 101020 130101fe 232e1100 232c8100 13040102  ....#...#,......
 101030 93070500 a307f4fe 0347f4fe 9307a000  .........G......
 101040 6316f700 1305d000 eff09ffd b7070003  c...............
 101050 9387c707 0347f4fe 23a0e700 13000000  .....G..#.......
 101060 8320c101 03248101 13010102 67800000  . ...$......g...
 101070 130101fe 232e1100 232c8100 13040102  ....#...#,......
 101080 2326a4fe 6f00c001 8327c4fe 13871700  #&..o....'......
 101090 2326e4fe 83c70700 13850700 eff05ff8  #&............_.
 1010a0 8327c4fe 83c70700 e39007fe 13000000  .'..............
 1010b0 13000000 8320c101 03248101 13010102  ..... ...$......
 1010c0 67800000 130101fd 23261102 23248102  g.......#&..#$..
 1010d0 13040103 232ea4fc 232604fe 6f000004  ....#...#&..o...
 1010e0 8327c4fd 83c70700 63800702 8327c4fd  .'......c....'..
 1010f0 13871700 232ee4fc 83c70700 13850700  ....#...........
 101100 eff01ff2 6f00c000 13050002 eff05ff1  ....o........._.
 101110 8327c4fe 93871700 2326f4fe 0327c4fe  .'......#&...'..
 101120 93073001 e3dee7fa 13000000 13000000  ..0.............
 101130 8320c102 03248102 13010103 67800000  . ...$......g...
 101140 130101ff 23268100 13040101 b7070003  ....#&..........
 101150 9387c707 1307c007 23a0e700 b7070003  ........#.......
 101160 9387c707 1307d002 23a0e700 13000000  ........#.......
 101170 0324c100 13010101 67800000 130101ff  .$......g.......
 101180 23268100 13040101 b7070003 9387c707  #&..............
 101190 1307e00f 23a0e700 b7070003 9387c707  ....#...........
 1011a0 13072000 23a0e700 13000000 0324c100  .. .#........$..
 1011b0 13010101 67800000 130101fd 23261102  ....g.......#&..
 1011c0 23248102 13040103 232ea4fc 232cb4fc  #$......#...#,..
 1011d0 832784fd 9387f7ff 2326f4fe 6f004004  .'......#&..o.@.
 1011e0 8327c4fe 93972700 0327c4fd b357f700  .'....'..'...W..
 1011f0 93f7f700 37271000 1307c7b0 b307f700  ....7'..........
 101200 83c70700 a305f4fe 8347b4fe 13850700  .........G......
 101210 eff01fe1 8327c4fe 9387f7ff 2326f4fe  .....'......#&..
 101220 8327c4fe e3de07fa 13000000 13000000  .'..............
 101230 8320c102 03248102 13010103 67800000  . ...$......g...
 101240 130101fe 232e1100 232c8100 13040102  ....#...#,......
 101250 2326a4fe 0327c4fe 9307f07c 63fae700  #&...'.....|c...
 101260 b7271000 138507b2 eff09fe0 6f000041  .'..........o..A
 101270 0327c4fe 9307703e 63fee700 13051003  .'....p>c.......
 101280 eff01fda 8327c4fe 938787c1 2326f4fe  .....'......#&..
 101290 6f00c000 13050002 eff09fd8 0327c4fe  o............'..
 1012a0 93073038 63fee700 13059003 eff05fd7  ..08c........._.
 1012b0 8327c4fe 9387c7c7 2326f4fe 6f00c012  .'......#&..o...
 1012c0 0327c4fe 9307f031 63fee700 13058003  .'.....1c.......
 1012d0 eff01fd5 8327c4fe 938707ce 2326f4fe  .....'......#&..
 1012e0 6f008010 0327c4fe 9307b02b 63fee700  o....'.....+c...
 1012f0 13057003 eff0dfd2 8327c4fe 938747d4  ..p......'....G.
 101300 2326f4fe 6f00400e 0327c4fe 93077025  #&..o.@..'....p%
 101310 63fee700 13056003 eff09fd0 8327c4fe  c.....`......'..
 101320 938787da 2326f4fe 6f00000c 0327c4fe  ....#&..o....'..
 101330 9307301f 63fee700 13055003 eff05fce  ..0.c.....P..._.
 101340 8327c4fe 9387c7e0 2326f4fe 6f00c009  .'......#&..o...
 101350 0327c4fe 9307f018 63fee700 13054003  .'......c.....@.
 101360 eff01fcc 8327c4fe 938707e7 2326f4fe  .....'......#&..
 101370 6f008007 0327c4fe 9307b012 63fee700  o....'......c...
 101380 13053003 eff0dfc9 8327c4fe 938747ed  ..0......'....G.
 101390 2326f4fe 6f004005 0327c4fe 9307700c  #&..o.@..'....p.
 1013a0 63fee700 13052003 eff09fc7 8327c4fe  c..... ......'..
 1013b0 938787f3 2326f4fe 6f000003 0327c4fe  ....#&..o....'..
 1013c0 93073006 63fee700 13051003 eff05fc5  ..0.c........._.
 1013d0 8327c4fe 9387c7f9 2326f4fe 6f00c000  .'......#&..o...
 1013e0 13050003 eff0dfc3 0327c4fe 93079005  .........'......
 1013f0 63fee700 13059003 eff09fc2 8327c4fe  c............'..
 101400 938767fa 2326f4fe 6f00c012 0327c4fe  ..g.#&..o....'..
 101410 9307f004 63fee700 13058003 eff05fc0  ....c........._.
 101420 8327c4fe 938707fb 2326f4fe 6f008010  .'......#&..o...
 101430 0327c4fe 93075004 63fee700 13057003  .'....P.c.....p.
 101440 eff01fbe 8327c4fe 9387a7fb 2326f4fe  .....'......#&..
 101450 6f00400e 0327c4fe 9307b003 63fee700  o.@..'......c...
 101460 13056003 eff0dfbb 8327c4fe 938747fc  ..`......'....G.
 101470 2326f4fe 6f00000c 0327c4fe 93071003  #&..o....'......
 101480 63fee700 13055003 eff09fb9 8327c4fe  c.....P......'..
 101490 9387e7fc 2326f4fe 6f00c009 0327c4fe  ....#&..o....'..
 1014a0 93077002 63fee700 13054003 eff05fb7  ..p.c.....@..._.
 1014b0 8327c4fe 938787fd 2326f4fe 6f008007  .'......#&..o...
 1014c0 0327c4fe 9307d001 63fee700 13053003  .'......c.....0.
 1014d0 eff01fb5 8327c4fe 938727fe 2326f4fe  .....'....'.#&..
 1014e0 6f004005 0327c4fe 93073001 63fee700  o.@..'....0.c...
 1014f0 13052003 eff0dfb2 8327c4fe 9387c7fe  .. ......'......
 101500 2326f4fe 6f000003 0327c4fe 93079000  #&..o....'......
 101510 63fee700 13051003 eff09fb0 8327c4fe  c............'..
 101520 938767ff 2326f4fe 6f00c000 13050003  ..g.#&..o.......
 101530 eff01faf 0327c4fe 93078000 63fee700  .....'......c...
 101540 13059003 eff0dfad 8327c4fe 938777ff  .........'....w.
 101550 2326f4fe 6f008012 0327c4fe 93077000  #&..o....'....p.
 101560 63fee700 13058003 eff09fab 8327c4fe  c............'..
 101570 938787ff 2326f4fe 6f004010 0327c4fe  ....#&..o.@..'..
 101580 93076000 63fee700 13057003 eff05fa9  ..`.c.....p..._.
 101590 8327c4fe 938797ff 2326f4fe 6f00000e  .'......#&..o...
 1015a0 0327c4fe 93075000 63fee700 13056003  .'....P.c.....`.
 1015b0 eff01fa7 8327c4fe 9387a7ff 2326f4fe  .....'......#&..
 1015c0 6f00c00b 0327c4fe 93074000 63fee700  o....'....@.c...
 1015d0 13055003 eff0dfa4 8327c4fe 9387b7ff  ..P......'......
 1015e0 2326f4fe 6f008009 0327c4fe 93073000  #&..o....'....0.
 1015f0 63fee700 13054003 eff09fa2 8327c4fe  c.....@......'..
 101600 9387c7ff 2326f4fe 6f004007 0327c4fe  ....#&..o.@..'..
 101610 93072000 63fee700 13053003 eff05fa0  .. .c.....0..._.
 101620 8327c4fe 9387d7ff 2326f4fe 6f000005  .'......#&..o...
 101630 0327c4fe 93071000 63fee700 13052003  .'......c..... .
 101640 eff01f9e 8327c4fe 9387e7ff 2326f4fe  .....'......#&..
 101650 6f00c002 8327c4fe 638e0700 13051003  o....'..c.......
 101660 eff01f9c 8327c4fe 9387f7ff 2326f4fe  .....'......#&..
 101670 6f00c000 13050003 eff09f9a 8320c101  o............ ..
 101680 03248101 13010102 67800000 130101fe  .$......g.......
 101690 232e1100 232c8100 13040102 2326a4fe  #...#,......#&..
 1016a0 8327c4fe 93f7f700 2326f4fe 0327c4fe  .'......#&...'..
 1016b0 93079000 6318f700 13059003 eff05f96  ....c........._.
 1016c0 6f00000e 0327c4fe 93078000 6318f700  o....'......c...
 1016d0 13058003 eff0df94 6f00800c 0327c4fe  ........o....'..
 1016e0 93077000 6318f700 13057003 eff05f93  ..p.c.....p..._.
 1016f0 6f00000b 0327c4fe 93076000 6318f700  o....'....`.c...
 101700 13056003 eff0df91 6f008009 0327c4fe  ..`.....o....'..
 101710 93075000 6318f700 13055003 eff05f90  ..P.c.....P..._.
 101720 6f000008 0327c4fe 93074000 6318f700  o....'....@.c...
 101730 13054003 eff0df8e 6f008006 0327c4fe  ..@.....o....'..
 101740 93073000 6318f700 13053003 eff05f8d  ..0.c.....0..._.
 101750 6f000005 0327c4fe 93072000 6318f700  o....'.... .c...
 101760 13052003 eff0df8b 6f008003 0327c4fe  .. .....o....'..
 101770 93071000 6318f700 13051003 eff05f8a  ....c........._.
 101780 6f000002 8327c4fe 63980700 13050003  o....'..c.......
 101790 eff01f89 6f00c000 1305a002 eff05f88  ....o........._.
 1017a0 13000000 8320c101 03248101 13010102  ..... ...$......
 1017b0 67800000 130101fd 23261102 23248102  g.......#&..#$..
 1017c0 13040103 232ea4fc 9307f0ff 2326f4fe  ....#.......#&..
 1017d0 f32700c0 2324f4fe 8327c4fd 63800706  .'..#$...'..c...
 1017e0 0325c4fd eff0df88 6f004005 f32700c0  .%......o.@..'..
 1017f0 2322f4fe 032744fe 832784fe b307f740  #"...'D..'.....@
 101800 2320f4fe 032704fe b727b700 938707b0  # ...'...'......
 101810 63fee700 8327c4fd 63860700 0325c4fd  c....'..c....%..
 101820 eff01f85 832744fe 2324f4fe b7070003  .....'D.#$......
 101830 9387c707 83a70700 2326f4fe 0327c4fe  ........#&...'..
 101840 9307f0ff e304f7fa 8327c4fe 93f7f70f  .........'......
 101850 13850700 8320c102 03248102 13010103  ..... ...$......
 101860 67800000 130101ff 23261100 23248100  g.......#&..#$..
 101870 13040101 13050000 eff0dff3 93070500  ................
 101880 13850700 8320c100 03248100 13010101  ..... ...$......
 101890 67800000 130101fd 23261102 23248102  g.......#&..#$..
 1018a0 13040103 232ea4fc 232cb4fc 0327c4fd  ....#...#,...'..
 1018b0 b7070065 b367f700 2324f4fe 232604fe  ...e.g..#$..#&..
 1018c0 930784fe 13060000 93056000 13850700  ..........`.....
 1018d0 eff08fd4 b7271000 138587b2 eff04ff9  .....'........O.
 1018e0 93056000 0325c4fd eff01f8d b7271000  ..`..%.......'..
 1018f0 1385c7b2 eff0cff7 032584fd eff04ff7  .........%....O.
 101900 b7271000 138507b3 eff08ff6 8327c4fe  .'...........'..
 101910 93052000 13850700 eff01f8a b7271000  .. ..........'..
 101920 138547b3 eff0cff4 13000000 8320c102  ..G.......... ..
 101930 03248102 13010103 67800000 130101fe  .$......g.......
 101940 232e1100 232c8100 13040102 b7271000  #...#,.......'..
 101950 138587b3 eff0cff1 6f008002 0347f4fe  ........o....G..
 101960 9307d000 6318f700 1305a000 eff04feb  ....c.........O.
 101970 6f000001 8347f4fe 13850700 eff04fea  o....G........O.
 101980 eff05fee 93070500 a307f4fe 0347f4fe  .._..........G..
 101990 93071002 e314f7fc 13000000 13000000  ................
 1019a0 8320c101 03248101 13010102 67800000  . ...$......g...
 1019b0 130101ff 23261100 23248100 13040101  ....#&..#$......
 1019c0 b7271000 938587b5 37058000 eff09fec  .'......7.......
 1019d0 b7271000 938507b6 b7078000 13852700  .'............'.
 1019e0 eff05feb b7271000 938587b6 b7078000  .._..'..........
 1019f0 13853700 eff01fea b7271000 938507b7  ..7......'......
 101a00 b7078000 13854700 eff0dfe8 13000000  ......G.........
 101a10 8320c100 03248100 13010101 67800000  . ...$......g...
 101a20 130101fe 232e1100 232c8100 13040102  ....#...#,......
 101a30 93052000 1305200a efe0dfbd 93070500  .. ... .........
 101a40 a307f4fe 13000000 8320c101 03248101  ......... ...$..
 101a50 13010102 67800000 130101fe 232e1100  ....g.......#...
 101a60 232c8100 13040102 13058000 eff00fd2  #,..............
 101a70 b7070003 93874700 23a00700 b7070003  ......G.#.......
 101a80 13071000 23a0e700 232604fe 6f000001  ....#...#&..o...
 101a90 8327c4fe 93871700 2326f4fe 0327c4fe  .'......#&...'..
 101aa0 9307703e e3f6e7fe b7070003 13078000  ..p>............
 101ab0 23a0e700 13050008 efe08fec b7070003  #...............
 101ac0 1307b000 23a0e700 230404fe 13067007  ....#...#.....p.
 101ad0 93050015 1305000a efe01f97 b7070003  ................
 101ae0 13073000 23a0e700 930784fe 13860700  ..0.#...........
 101af0 93050015 1305000a efe09fea b7070003  ................
 101b00 1307f000 23a0e700 6f000000 30313233  ....#...o...0123
 101b10 34353637 38396162 63646566 00000000  456789abcdef....
 101b20 4f564552 00000000 30780000 20000000  OVER....0x.. ...
 101b30 20307800 20200000 52657475 726e2074   0x.  ..Return t
 101b40 6f206d65 6e752062 79207365 6e64696e  o menu by sendin
 101b50 67202721 270a0a00 53523156 00000000  g '!'...SR1V....
 101b60 43523156 00000000 43523256 00000000  CR1V....CR2V....
 101b70 43523356 00000000 d4000003 d5000003  CR3V............
 101b80 d6000003 dc000003 dc000003 d8000003  ................
 101b90 d8000003                             ....            
Contents of section .riscv.attributes:
 0000 41200000 00726973 63760001 16000000  A ...riscv......
 0010 04100572 76333269 3270305f 6d327030  ...rv32i2p0_m2p0
 0020 00                                   .               
Contents of section .comment:
 0000 4743433a 2028474e 55292039 2e322e30  GCC: (GNU) 9.2.0
 0010 00                                   .               

Disassembly of section .text:

00100000 <start>:
  100000:	00000093          	li	ra,0
  100004:	00000193          	li	gp,0
  100008:	00000213          	li	tp,0
  10000c:	00000293          	li	t0,0
  100010:	00000313          	li	t1,0
  100014:	00000393          	li	t2,0
  100018:	00000413          	li	s0,0
  10001c:	00000493          	li	s1,0
  100020:	00000513          	li	a0,0
  100024:	00000593          	li	a1,0
  100028:	00000613          	li	a2,0
  10002c:	00000693          	li	a3,0
  100030:	00000713          	li	a4,0
  100034:	00000793          	li	a5,0
  100038:	00000813          	li	a6,0
  10003c:	00000893          	li	a7,0
  100040:	00000913          	li	s2,0
  100044:	00000993          	li	s3,0
  100048:	00000a13          	li	s4,0
  10004c:	00000a93          	li	s5,0
  100050:	00000b13          	li	s6,0
  100054:	00000b93          	li	s7,0
  100058:	00000c13          	li	s8,0
  10005c:	00000c93          	li	s9,0
  100060:	00000d13          	li	s10,0
  100064:	00000d93          	li	s11,0
  100068:	00000e13          	li	t3,0
  10006c:	00000e93          	li	t4,0
  100070:	00000f13          	li	t5,0
  100074:	00000f93          	li	t6,0
  100078:	00002517          	auipc	a0,0x2
  10007c:	b1c50513          	addi	a0,a0,-1252 # 101b94 <_etext>
  100080:	00000593          	li	a1,0
  100084:	00000613          	li	a2,0
  100088:	00c5dc63          	bge	a1,a2,1000a0 <end_init_data>

0010008c <loop_init_data>:
  10008c:	00052683          	lw	a3,0(a0)
  100090:	00d5a023          	sw	a3,0(a1)
  100094:	00450513          	addi	a0,a0,4
  100098:	00458593          	addi	a1,a1,4
  10009c:	fec5c8e3          	blt	a1,a2,10008c <loop_init_data>

001000a0 <end_init_data>:
  1000a0:	1b9010ef          	jal	ra,101a58 <main>

001000a4 <loop>:
  1000a4:	0000006f          	j	1000a4 <loop>

001000a8 <flashio_worker_begin>:
  1000a8:	020002b7          	lui	t0,0x2000
  1000ac:	12000313          	li	t1,288
  1000b0:	00629023          	sh	t1,0(t0) # 2000000 <_etext+0x1efe46c>
  1000b4:	000281a3          	sb	zero,3(t0)
  1000b8:	02060863          	beqz	a2,1000e8 <flashio_worker_L1>
  1000bc:	00800f13          	li	t5,8
  1000c0:	0ff67393          	andi	t2,a2,255

001000c4 <flashio_worker_L4>:
  1000c4:	0073de93          	srli	t4,t2,0x7
  1000c8:	01d28023          	sb	t4,0(t0)
  1000cc:	010eee93          	ori	t4,t4,16
  1000d0:	01d28023          	sb	t4,0(t0)
  1000d4:	00139393          	slli	t2,t2,0x1
  1000d8:	0ff3f393          	andi	t2,t2,255
  1000dc:	ffff0f13          	addi	t5,t5,-1
  1000e0:	fe0f12e3          	bnez	t5,1000c4 <flashio_worker_L4>
  1000e4:	00628023          	sb	t1,0(t0)

001000e8 <flashio_worker_L1>:
  1000e8:	04058663          	beqz	a1,100134 <flashio_worker_L3>
  1000ec:	00800f13          	li	t5,8
  1000f0:	00054383          	lbu	t2,0(a0)

001000f4 <flashio_worker_L2>:
  1000f4:	0073de93          	srli	t4,t2,0x7
  1000f8:	01d28023          	sb	t4,0(t0)
  1000fc:	010eee93          	ori	t4,t4,16
  100100:	01d28023          	sb	t4,0(t0)
  100104:	0002ce83          	lbu	t4,0(t0)
  100108:	002efe93          	andi	t4,t4,2
  10010c:	001ede93          	srli	t4,t4,0x1
  100110:	00139393          	slli	t2,t2,0x1
  100114:	01d3e3b3          	or	t2,t2,t4
  100118:	0ff3f393          	andi	t2,t2,255
  10011c:	ffff0f13          	addi	t5,t5,-1
  100120:	fc0f1ae3          	bnez	t5,1000f4 <flashio_worker_L2>
  100124:	00750023          	sb	t2,0(a0)
  100128:	00150513          	addi	a0,a0,1
  10012c:	fff58593          	addi	a1,a1,-1
  100130:	fb9ff06f          	j	1000e8 <flashio_worker_L1>

00100134 <flashio_worker_L3>:
  100134:	08000313          	li	t1,128
  100138:	006281a3          	sb	t1,3(t0)
  10013c:	00008067          	ret

00100140 <flashio_worker_end>:
  100140:	030002b7          	lui	t0,0x3000
  100144:	0d828293          	addi	t0,t0,216 # 30000d8 <_etext+0x2efe544>
  100148:	03000e37          	lui	t3,0x3000
  10014c:	00200393          	li	t2,2
  100150:	26200e93          	li	t4,610
  100154:	00100f13          	li	t5,1
  100158:	00052023          	sw	zero,0(a0)
  10015c:	06000313          	li	t1,96
  100160:	00628023          	sb	t1,0(t0)

00100164 <i2c_read_data_L1>:
  100164:	fffe8e93          	addi	t4,t4,-1
  100168:	fe0e9ee3          	bnez	t4,100164 <i2c_read_data_L1>
  10016c:	00000013          	nop
  100170:	00000013          	nop
  100174:	01ee0023          	sb	t5,0(t3) # 3000000 <_etext+0x2efe46c>

00100178 <i2c_read_data_L2>:
  100178:	00428503          	lb	a0,4(t0)
  10017c:	00008067          	ret

00100180 <i2c_init>:
  100180:	fe010113          	addi	sp,sp,-32
  100184:	00812e23          	sw	s0,28(sp)
  100188:	02010413          	addi	s0,sp,32
  10018c:	fea42623          	sw	a0,-20(s0)
  100190:	030007b7          	lui	a5,0x3000
  100194:	0d678793          	addi	a5,a5,214 # 30000d6 <_etext+0x2efe542>
  100198:	00079023          	sh	zero,0(a5)
  10019c:	030007b7          	lui	a5,0x3000
  1001a0:	0d478793          	addi	a5,a5,212 # 30000d4 <_etext+0x2efe540>
  1001a4:	fec42703          	lw	a4,-20(s0)
  1001a8:	01071713          	slli	a4,a4,0x10
  1001ac:	01075713          	srli	a4,a4,0x10
  1001b0:	00e79023          	sh	a4,0(a5)
  1001b4:	030007b7          	lui	a5,0x3000
  1001b8:	0d678793          	addi	a5,a5,214 # 30000d6 <_etext+0x2efe542>
  1001bc:	08000713          	li	a4,128
  1001c0:	00e79023          	sh	a4,0(a5)
  1001c4:	00000013          	nop
  1001c8:	01c12403          	lw	s0,28(sp)
  1001cc:	02010113          	addi	sp,sp,32
  1001d0:	00008067          	ret

001001d4 <i2c_send>:
  1001d4:	fd010113          	addi	sp,sp,-48
  1001d8:	02812623          	sw	s0,44(sp)
  1001dc:	03010413          	addi	s0,sp,48
  1001e0:	00050793          	mv	a5,a0
  1001e4:	00058713          	mv	a4,a1
  1001e8:	fcf40fa3          	sb	a5,-33(s0)
  1001ec:	00070793          	mv	a5,a4
  1001f0:	fcf40f23          	sb	a5,-34(s0)
  1001f4:	030007b7          	lui	a5,0x3000
  1001f8:	0dc78793          	addi	a5,a5,220 # 30000dc <_etext+0x2efe548>
  1001fc:	fdf44703          	lbu	a4,-33(s0)
  100200:	00e7a023          	sw	a4,0(a5)
  100204:	030007b7          	lui	a5,0x3000
  100208:	0d878793          	addi	a5,a5,216 # 30000d8 <_etext+0x2efe544>
  10020c:	09000713          	li	a4,144
  100210:	00e7a023          	sw	a4,0(a5)
  100214:	00000013          	nop
  100218:	030007b7          	lui	a5,0x3000
  10021c:	0d878793          	addi	a5,a5,216 # 30000d8 <_etext+0x2efe544>
  100220:	0007a783          	lw	a5,0(a5)
  100224:	0027f793          	andi	a5,a5,2
  100228:	fe0798e3          	bnez	a5,100218 <i2c_send+0x44>
  10022c:	030007b7          	lui	a5,0x3000
  100230:	0d878793          	addi	a5,a5,216 # 30000d8 <_etext+0x2efe544>
  100234:	0007a783          	lw	a5,0(a5)
  100238:	0807f713          	andi	a4,a5,128
  10023c:	00100793          	li	a5,1
  100240:	00f71e63          	bne	a4,a5,10025c <i2c_send+0x88>
  100244:	030007b7          	lui	a5,0x3000
  100248:	0d878793          	addi	a5,a5,216 # 30000d8 <_etext+0x2efe544>
  10024c:	04000713          	li	a4,64
  100250:	00e7a023          	sw	a4,0(a5)
  100254:	00000793          	li	a5,0
  100258:	0700006f          	j	1002c8 <i2c_send+0xf4>
  10025c:	030007b7          	lui	a5,0x3000
  100260:	0dc78793          	addi	a5,a5,220 # 30000dc <_etext+0x2efe548>
  100264:	fde44703          	lbu	a4,-34(s0)
  100268:	00e7a023          	sw	a4,0(a5)
  10026c:	030007b7          	lui	a5,0x3000
  100270:	0d878793          	addi	a5,a5,216 # 30000d8 <_etext+0x2efe544>
  100274:	01000713          	li	a4,16
  100278:	00e7a023          	sw	a4,0(a5)
  10027c:	00000013          	nop
  100280:	030007b7          	lui	a5,0x3000
  100284:	0d878793          	addi	a5,a5,216 # 30000d8 <_etext+0x2efe544>
  100288:	0007a783          	lw	a5,0(a5)
  10028c:	0027f793          	andi	a5,a5,2
  100290:	fe0798e3          	bnez	a5,100280 <i2c_send+0xac>
  100294:	030007b7          	lui	a5,0x3000
  100298:	0d878793          	addi	a5,a5,216 # 30000d8 <_etext+0x2efe544>
  10029c:	04000713          	li	a4,64
  1002a0:	00e7a023          	sw	a4,0(a5)
  1002a4:	030007b7          	lui	a5,0x3000
  1002a8:	0d878793          	addi	a5,a5,216 # 30000d8 <_etext+0x2efe544>
  1002ac:	0007a783          	lw	a5,0(a5)
  1002b0:	0807f713          	andi	a4,a5,128
  1002b4:	00100793          	li	a5,1
  1002b8:	00f71663          	bne	a4,a5,1002c4 <i2c_send+0xf0>
  1002bc:	00000793          	li	a5,0
  1002c0:	0080006f          	j	1002c8 <i2c_send+0xf4>
  1002c4:	00100793          	li	a5,1
  1002c8:	00078513          	mv	a0,a5
  1002cc:	02c12403          	lw	s0,44(sp)
  1002d0:	03010113          	addi	sp,sp,48
  1002d4:	00008067          	ret

001002d8 <write_i2c_slave_byte>:
  1002d8:	fe010113          	addi	sp,sp,-32
  1002dc:	00812e23          	sw	s0,28(sp)
  1002e0:	02010413          	addi	s0,sp,32
  1002e4:	fea42623          	sw	a0,-20(s0)
  1002e8:	feb42423          	sw	a1,-24(s0)
  1002ec:	fec42223          	sw	a2,-28(s0)
  1002f0:	fec42703          	lw	a4,-20(s0)
  1002f4:	030007b7          	lui	a5,0x3000
  1002f8:	0dc78793          	addi	a5,a5,220 # 30000dc <_etext+0x2efe548>
  1002fc:	0ff77713          	andi	a4,a4,255
  100300:	00e7a023          	sw	a4,0(a5)
  100304:	030007b7          	lui	a5,0x3000
  100308:	0d878793          	addi	a5,a5,216 # 30000d8 <_etext+0x2efe544>
  10030c:	09000713          	li	a4,144
  100310:	00e7a023          	sw	a4,0(a5)
  100314:	00000013          	nop
  100318:	030007b7          	lui	a5,0x3000
  10031c:	0d878793          	addi	a5,a5,216 # 30000d8 <_etext+0x2efe544>
  100320:	0007a783          	lw	a5,0(a5)
  100324:	0027f793          	andi	a5,a5,2
  100328:	fe0798e3          	bnez	a5,100318 <write_i2c_slave_byte+0x40>
  10032c:	030007b7          	lui	a5,0x3000
  100330:	0d878793          	addi	a5,a5,216 # 30000d8 <_etext+0x2efe544>
  100334:	0007a783          	lw	a5,0(a5)
  100338:	0807f713          	andi	a4,a5,128
  10033c:	00100793          	li	a5,1
  100340:	00f71e63          	bne	a4,a5,10035c <write_i2c_slave_byte+0x84>
  100344:	030007b7          	lui	a5,0x3000
  100348:	0d878793          	addi	a5,a5,216 # 30000d8 <_etext+0x2efe544>
  10034c:	04000713          	li	a4,64
  100350:	00e7a023          	sw	a4,0(a5)
  100354:	00000793          	li	a5,0
  100358:	0e00006f          	j	100438 <write_i2c_slave_byte+0x160>
  10035c:	fe842703          	lw	a4,-24(s0)
  100360:	030007b7          	lui	a5,0x3000
  100364:	0dc78793          	addi	a5,a5,220 # 30000dc <_etext+0x2efe548>
  100368:	0ff77713          	andi	a4,a4,255
  10036c:	00e7a023          	sw	a4,0(a5)
  100370:	030007b7          	lui	a5,0x3000
  100374:	0d878793          	addi	a5,a5,216 # 30000d8 <_etext+0x2efe544>
  100378:	01000713          	li	a4,16
  10037c:	00e7a023          	sw	a4,0(a5)
  100380:	00000013          	nop
  100384:	030007b7          	lui	a5,0x3000
  100388:	0d878793          	addi	a5,a5,216 # 30000d8 <_etext+0x2efe544>
  10038c:	0007a783          	lw	a5,0(a5)
  100390:	0027f793          	andi	a5,a5,2
  100394:	fe0798e3          	bnez	a5,100384 <write_i2c_slave_byte+0xac>
  100398:	030007b7          	lui	a5,0x3000
  10039c:	0d878793          	addi	a5,a5,216 # 30000d8 <_etext+0x2efe544>
  1003a0:	0007a783          	lw	a5,0(a5)
  1003a4:	0807f713          	andi	a4,a5,128
  1003a8:	00100793          	li	a5,1
  1003ac:	00f71e63          	bne	a4,a5,1003c8 <write_i2c_slave_byte+0xf0>
  1003b0:	030007b7          	lui	a5,0x3000
  1003b4:	0d878793          	addi	a5,a5,216 # 30000d8 <_etext+0x2efe544>
  1003b8:	04000713          	li	a4,64
  1003bc:	00e7a023          	sw	a4,0(a5)
  1003c0:	00000793          	li	a5,0
  1003c4:	0740006f          	j	100438 <write_i2c_slave_byte+0x160>
  1003c8:	fe442703          	lw	a4,-28(s0)
  1003cc:	030007b7          	lui	a5,0x3000
  1003d0:	0dc78793          	addi	a5,a5,220 # 30000dc <_etext+0x2efe548>
  1003d4:	0ff77713          	andi	a4,a4,255
  1003d8:	00e7a023          	sw	a4,0(a5)
  1003dc:	030007b7          	lui	a5,0x3000
  1003e0:	0d878793          	addi	a5,a5,216 # 30000d8 <_etext+0x2efe544>
  1003e4:	01000713          	li	a4,16
  1003e8:	00e7a023          	sw	a4,0(a5)
  1003ec:	00000013          	nop
  1003f0:	030007b7          	lui	a5,0x3000
  1003f4:	0d878793          	addi	a5,a5,216 # 30000d8 <_etext+0x2efe544>
  1003f8:	0007a783          	lw	a5,0(a5)
  1003fc:	0027f793          	andi	a5,a5,2
  100400:	fe0798e3          	bnez	a5,1003f0 <write_i2c_slave_byte+0x118>
  100404:	030007b7          	lui	a5,0x3000
  100408:	0d878793          	addi	a5,a5,216 # 30000d8 <_etext+0x2efe544>
  10040c:	04000713          	li	a4,64
  100410:	00e7a023          	sw	a4,0(a5)
  100414:	030007b7          	lui	a5,0x3000
  100418:	0d878793          	addi	a5,a5,216 # 30000d8 <_etext+0x2efe544>
  10041c:	0007a783          	lw	a5,0(a5)
  100420:	0807f713          	andi	a4,a5,128
  100424:	00100793          	li	a5,1
  100428:	00f71663          	bne	a4,a5,100434 <write_i2c_slave_byte+0x15c>
  10042c:	00000793          	li	a5,0
  100430:	0080006f          	j	100438 <write_i2c_slave_byte+0x160>
  100434:	00100793          	li	a5,1
  100438:	00078513          	mv	a0,a5
  10043c:	01c12403          	lw	s0,28(sp)
  100440:	02010113          	addi	sp,sp,32
  100444:	00008067          	ret

00100448 <write_i2c_slave_byte_eeprom>:
  100448:	fe010113          	addi	sp,sp,-32
  10044c:	00812e23          	sw	s0,28(sp)
  100450:	02010413          	addi	s0,sp,32
  100454:	fea42623          	sw	a0,-20(s0)
  100458:	feb42423          	sw	a1,-24(s0)
  10045c:	fec42223          	sw	a2,-28(s0)
  100460:	fec42703          	lw	a4,-20(s0)
  100464:	030007b7          	lui	a5,0x3000
  100468:	0dc78793          	addi	a5,a5,220 # 30000dc <_etext+0x2efe548>
  10046c:	0ff77713          	andi	a4,a4,255
  100470:	00e7a023          	sw	a4,0(a5)
  100474:	030007b7          	lui	a5,0x3000
  100478:	0d878793          	addi	a5,a5,216 # 30000d8 <_etext+0x2efe544>
  10047c:	09000713          	li	a4,144
  100480:	00e7a023          	sw	a4,0(a5)
  100484:	00000013          	nop
  100488:	030007b7          	lui	a5,0x3000
  10048c:	0d878793          	addi	a5,a5,216 # 30000d8 <_etext+0x2efe544>
  100490:	0007a783          	lw	a5,0(a5)
  100494:	0027f793          	andi	a5,a5,2
  100498:	fe0798e3          	bnez	a5,100488 <write_i2c_slave_byte_eeprom+0x40>
  10049c:	030007b7          	lui	a5,0x3000
  1004a0:	0d878793          	addi	a5,a5,216 # 30000d8 <_etext+0x2efe544>
  1004a4:	0007a783          	lw	a5,0(a5)
  1004a8:	0807f713          	andi	a4,a5,128
  1004ac:	00100793          	li	a5,1
  1004b0:	00f71e63          	bne	a4,a5,1004cc <write_i2c_slave_byte_eeprom+0x84>
  1004b4:	030007b7          	lui	a5,0x3000
  1004b8:	0d878793          	addi	a5,a5,216 # 30000d8 <_etext+0x2efe544>
  1004bc:	04000713          	li	a4,64
  1004c0:	00e7a023          	sw	a4,0(a5)
  1004c4:	00000793          	li	a5,0
  1004c8:	13c0006f          	j	100604 <write_i2c_slave_byte_eeprom+0x1bc>
  1004cc:	fe842783          	lw	a5,-24(s0)
  1004d0:	0087d713          	srli	a4,a5,0x8
  1004d4:	030007b7          	lui	a5,0x3000
  1004d8:	0dc78793          	addi	a5,a5,220 # 30000dc <_etext+0x2efe548>
  1004dc:	0ff77713          	andi	a4,a4,255
  1004e0:	00e7a023          	sw	a4,0(a5)
  1004e4:	030007b7          	lui	a5,0x3000
  1004e8:	0d878793          	addi	a5,a5,216 # 30000d8 <_etext+0x2efe544>
  1004ec:	01000713          	li	a4,16
  1004f0:	00e7a023          	sw	a4,0(a5)
  1004f4:	00000013          	nop
  1004f8:	030007b7          	lui	a5,0x3000
  1004fc:	0d878793          	addi	a5,a5,216 # 30000d8 <_etext+0x2efe544>
  100500:	0007a783          	lw	a5,0(a5)
  100504:	0027f793          	andi	a5,a5,2
  100508:	fe0798e3          	bnez	a5,1004f8 <write_i2c_slave_byte_eeprom+0xb0>
  10050c:	030007b7          	lui	a5,0x3000
  100510:	0d878793          	addi	a5,a5,216 # 30000d8 <_etext+0x2efe544>
  100514:	0007a783          	lw	a5,0(a5)
  100518:	0807f713          	andi	a4,a5,128
  10051c:	00100793          	li	a5,1
  100520:	00f71e63          	bne	a4,a5,10053c <write_i2c_slave_byte_eeprom+0xf4>
  100524:	030007b7          	lui	a5,0x3000
  100528:	0d878793          	addi	a5,a5,216 # 30000d8 <_etext+0x2efe544>
  10052c:	04000713          	li	a4,64
  100530:	00e7a023          	sw	a4,0(a5)
  100534:	00000793          	li	a5,0
  100538:	0cc0006f          	j	100604 <write_i2c_slave_byte_eeprom+0x1bc>
  10053c:	fe842703          	lw	a4,-24(s0)
  100540:	030007b7          	lui	a5,0x3000
  100544:	0dc78793          	addi	a5,a5,220 # 30000dc <_etext+0x2efe548>
  100548:	0ff77713          	andi	a4,a4,255
  10054c:	00e7a023          	sw	a4,0(a5)
  100550:	030007b7          	lui	a5,0x3000
  100554:	0d878793          	addi	a5,a5,216 # 30000d8 <_etext+0x2efe544>
  100558:	01000713          	li	a4,16
  10055c:	00e7a023          	sw	a4,0(a5)
  100560:	00000013          	nop
  100564:	030007b7          	lui	a5,0x3000
  100568:	0d878793          	addi	a5,a5,216 # 30000d8 <_etext+0x2efe544>
  10056c:	0007a783          	lw	a5,0(a5)
  100570:	0027f793          	andi	a5,a5,2
  100574:	fe0798e3          	bnez	a5,100564 <write_i2c_slave_byte_eeprom+0x11c>
  100578:	030007b7          	lui	a5,0x3000
  10057c:	0d878793          	addi	a5,a5,216 # 30000d8 <_etext+0x2efe544>
  100580:	0007a783          	lw	a5,0(a5)
  100584:	0807f713          	andi	a4,a5,128
  100588:	00100793          	li	a5,1
  10058c:	00f71e63          	bne	a4,a5,1005a8 <write_i2c_slave_byte_eeprom+0x160>
  100590:	030007b7          	lui	a5,0x3000
  100594:	0d878793          	addi	a5,a5,216 # 30000d8 <_etext+0x2efe544>
  100598:	04000713          	li	a4,64
  10059c:	00e7a023          	sw	a4,0(a5)
  1005a0:	00000793          	li	a5,0
  1005a4:	0600006f          	j	100604 <write_i2c_slave_byte_eeprom+0x1bc>
  1005a8:	030007b7          	lui	a5,0x3000
  1005ac:	0dc78793          	addi	a5,a5,220 # 30000dc <_etext+0x2efe548>
  1005b0:	fe442703          	lw	a4,-28(s0)
  1005b4:	00e7a023          	sw	a4,0(a5)
  1005b8:	030007b7          	lui	a5,0x3000
  1005bc:	0d878793          	addi	a5,a5,216 # 30000d8 <_etext+0x2efe544>
  1005c0:	05000713          	li	a4,80
  1005c4:	00e7a023          	sw	a4,0(a5)
  1005c8:	00000013          	nop
  1005cc:	030007b7          	lui	a5,0x3000
  1005d0:	0d878793          	addi	a5,a5,216 # 30000d8 <_etext+0x2efe544>
  1005d4:	0007a783          	lw	a5,0(a5)
  1005d8:	0027f793          	andi	a5,a5,2
  1005dc:	fe0798e3          	bnez	a5,1005cc <write_i2c_slave_byte_eeprom+0x184>
  1005e0:	030007b7          	lui	a5,0x3000
  1005e4:	0d878793          	addi	a5,a5,216 # 30000d8 <_etext+0x2efe544>
  1005e8:	0007a783          	lw	a5,0(a5)
  1005ec:	0807f713          	andi	a4,a5,128
  1005f0:	00100793          	li	a5,1
  1005f4:	00f71663          	bne	a4,a5,100600 <write_i2c_slave_byte_eeprom+0x1b8>
  1005f8:	00000793          	li	a5,0
  1005fc:	0080006f          	j	100604 <write_i2c_slave_byte_eeprom+0x1bc>
  100600:	00100793          	li	a5,1
  100604:	00078513          	mv	a0,a5
  100608:	01c12403          	lw	s0,28(sp)
  10060c:	02010113          	addi	sp,sp,32
  100610:	00008067          	ret

00100614 <read_i2c_slave_byte>:
  100614:	fe010113          	addi	sp,sp,-32
  100618:	00812e23          	sw	s0,28(sp)
  10061c:	02010413          	addi	s0,sp,32
  100620:	fea42623          	sw	a0,-20(s0)
  100624:	feb42423          	sw	a1,-24(s0)
  100628:	030007b7          	lui	a5,0x3000
  10062c:	0dc78793          	addi	a5,a5,220 # 30000dc <_etext+0x2efe548>
  100630:	fec42703          	lw	a4,-20(s0)
  100634:	00e7a023          	sw	a4,0(a5)
  100638:	030007b7          	lui	a5,0x3000
  10063c:	0d878793          	addi	a5,a5,216 # 30000d8 <_etext+0x2efe544>
  100640:	0007a783          	lw	a5,0(a5)
  100644:	0027f713          	andi	a4,a5,2
  100648:	00100793          	li	a5,1
  10064c:	00f71c63          	bne	a4,a5,100664 <read_i2c_slave_byte+0x50>
  100650:	030007b7          	lui	a5,0x3000
  100654:	00f00713          	li	a4,15
  100658:	00e7a023          	sw	a4,0(a5) # 3000000 <_etext+0x2efe46c>
  10065c:	00000793          	li	a5,0
  100660:	1dc0006f          	j	10083c <read_i2c_slave_byte+0x228>
  100664:	030007b7          	lui	a5,0x3000
  100668:	0d878793          	addi	a5,a5,216 # 30000d8 <_etext+0x2efe544>
  10066c:	09000713          	li	a4,144
  100670:	00e7a023          	sw	a4,0(a5)
  100674:	00000013          	nop
  100678:	030007b7          	lui	a5,0x3000
  10067c:	0d878793          	addi	a5,a5,216 # 30000d8 <_etext+0x2efe544>
  100680:	0007a783          	lw	a5,0(a5)
  100684:	0027f793          	andi	a5,a5,2
  100688:	fe0798e3          	bnez	a5,100678 <read_i2c_slave_byte+0x64>
  10068c:	030007b7          	lui	a5,0x3000
  100690:	0d878793          	addi	a5,a5,216 # 30000d8 <_etext+0x2efe544>
  100694:	0007a783          	lw	a5,0(a5)
  100698:	0807f713          	andi	a4,a5,128
  10069c:	00100793          	li	a5,1
  1006a0:	00f71e63          	bne	a4,a5,1006bc <read_i2c_slave_byte+0xa8>
  1006a4:	030007b7          	lui	a5,0x3000
  1006a8:	0d878793          	addi	a5,a5,216 # 30000d8 <_etext+0x2efe544>
  1006ac:	04000713          	li	a4,64
  1006b0:	00e7a023          	sw	a4,0(a5)
  1006b4:	00000793          	li	a5,0
  1006b8:	1840006f          	j	10083c <read_i2c_slave_byte+0x228>
  1006bc:	030007b7          	lui	a5,0x3000
  1006c0:	0dc78793          	addi	a5,a5,220 # 30000dc <_etext+0x2efe548>
  1006c4:	fe842703          	lw	a4,-24(s0)
  1006c8:	00e7a023          	sw	a4,0(a5)
  1006cc:	030007b7          	lui	a5,0x3000
  1006d0:	0d878793          	addi	a5,a5,216 # 30000d8 <_etext+0x2efe544>
  1006d4:	0007a783          	lw	a5,0(a5)
  1006d8:	0027f713          	andi	a4,a5,2
  1006dc:	00100793          	li	a5,1
  1006e0:	00f71c63          	bne	a4,a5,1006f8 <read_i2c_slave_byte+0xe4>
  1006e4:	030007b7          	lui	a5,0x3000
  1006e8:	00f00713          	li	a4,15
  1006ec:	00e7a023          	sw	a4,0(a5) # 3000000 <_etext+0x2efe46c>
  1006f0:	00000793          	li	a5,0
  1006f4:	1480006f          	j	10083c <read_i2c_slave_byte+0x228>
  1006f8:	030007b7          	lui	a5,0x3000
  1006fc:	0d878793          	addi	a5,a5,216 # 30000d8 <_etext+0x2efe544>
  100700:	01000713          	li	a4,16
  100704:	00e7a023          	sw	a4,0(a5)
  100708:	00000013          	nop
  10070c:	030007b7          	lui	a5,0x3000
  100710:	0d878793          	addi	a5,a5,216 # 30000d8 <_etext+0x2efe544>
  100714:	0007a783          	lw	a5,0(a5)
  100718:	0027f793          	andi	a5,a5,2
  10071c:	fe0798e3          	bnez	a5,10070c <read_i2c_slave_byte+0xf8>
  100720:	030007b7          	lui	a5,0x3000
  100724:	0d878793          	addi	a5,a5,216 # 30000d8 <_etext+0x2efe544>
  100728:	0007a783          	lw	a5,0(a5)
  10072c:	0807f713          	andi	a4,a5,128
  100730:	00100793          	li	a5,1
  100734:	00f71e63          	bne	a4,a5,100750 <read_i2c_slave_byte+0x13c>
  100738:	030007b7          	lui	a5,0x3000
  10073c:	0d878793          	addi	a5,a5,216 # 30000d8 <_etext+0x2efe544>
  100740:	04000713          	li	a4,64
  100744:	00e7a023          	sw	a4,0(a5)
  100748:	00000793          	li	a5,0
  10074c:	0f00006f          	j	10083c <read_i2c_slave_byte+0x228>
  100750:	fec42703          	lw	a4,-20(s0)
  100754:	030007b7          	lui	a5,0x3000
  100758:	0dc78793          	addi	a5,a5,220 # 30000dc <_etext+0x2efe548>
  10075c:	00176713          	ori	a4,a4,1
  100760:	00e7a023          	sw	a4,0(a5)
  100764:	030007b7          	lui	a5,0x3000
  100768:	0d878793          	addi	a5,a5,216 # 30000d8 <_etext+0x2efe544>
  10076c:	0007a783          	lw	a5,0(a5)
  100770:	0027f713          	andi	a4,a5,2
  100774:	00100793          	li	a5,1
  100778:	00f71c63          	bne	a4,a5,100790 <read_i2c_slave_byte+0x17c>
  10077c:	030007b7          	lui	a5,0x3000
  100780:	00f00713          	li	a4,15
  100784:	00e7a023          	sw	a4,0(a5) # 3000000 <_etext+0x2efe46c>
  100788:	00000793          	li	a5,0
  10078c:	0b00006f          	j	10083c <read_i2c_slave_byte+0x228>
  100790:	030007b7          	lui	a5,0x3000
  100794:	0d878793          	addi	a5,a5,216 # 30000d8 <_etext+0x2efe544>
  100798:	09000713          	li	a4,144
  10079c:	00e7a023          	sw	a4,0(a5)
  1007a0:	00000013          	nop
  1007a4:	030007b7          	lui	a5,0x3000
  1007a8:	0d878793          	addi	a5,a5,216 # 30000d8 <_etext+0x2efe544>
  1007ac:	0007a783          	lw	a5,0(a5)
  1007b0:	0027f793          	andi	a5,a5,2
  1007b4:	fe0798e3          	bnez	a5,1007a4 <read_i2c_slave_byte+0x190>
  1007b8:	030007b7          	lui	a5,0x3000
  1007bc:	0d878793          	addi	a5,a5,216 # 30000d8 <_etext+0x2efe544>
  1007c0:	0007a783          	lw	a5,0(a5)
  1007c4:	0807f713          	andi	a4,a5,128
  1007c8:	00100793          	li	a5,1
  1007cc:	00f71e63          	bne	a4,a5,1007e8 <read_i2c_slave_byte+0x1d4>
  1007d0:	030007b7          	lui	a5,0x3000
  1007d4:	0d878793          	addi	a5,a5,216 # 30000d8 <_etext+0x2efe544>
  1007d8:	04000713          	li	a4,64
  1007dc:	00e7a023          	sw	a4,0(a5)
  1007e0:	00000793          	li	a5,0
  1007e4:	0580006f          	j	10083c <read_i2c_slave_byte+0x228>
  1007e8:	030007b7          	lui	a5,0x3000
  1007ec:	0d878793          	addi	a5,a5,216 # 30000d8 <_etext+0x2efe544>
  1007f0:	06000713          	li	a4,96
  1007f4:	00e7a023          	sw	a4,0(a5)
  1007f8:	00000013          	nop
  1007fc:	030007b7          	lui	a5,0x3000
  100800:	0d878793          	addi	a5,a5,216 # 30000d8 <_etext+0x2efe544>
  100804:	0007a783          	lw	a5,0(a5)
  100808:	0027f793          	andi	a5,a5,2
  10080c:	fe0798e3          	bnez	a5,1007fc <read_i2c_slave_byte+0x1e8>
  100810:	030007b7          	lui	a5,0x3000
  100814:	0d878793          	addi	a5,a5,216 # 30000d8 <_etext+0x2efe544>
  100818:	0007a783          	lw	a5,0(a5)
  10081c:	0807f713          	andi	a4,a5,128
  100820:	00100793          	li	a5,1
  100824:	00f71663          	bne	a4,a5,100830 <read_i2c_slave_byte+0x21c>
  100828:	00000793          	li	a5,0
  10082c:	0100006f          	j	10083c <read_i2c_slave_byte+0x228>
  100830:	030007b7          	lui	a5,0x3000
  100834:	0dc78793          	addi	a5,a5,220 # 30000dc <_etext+0x2efe548>
  100838:	0007a783          	lw	a5,0(a5)
  10083c:	00078513          	mv	a0,a5
  100840:	01c12403          	lw	s0,28(sp)
  100844:	02010113          	addi	sp,sp,32
  100848:	00008067          	ret

0010084c <i2c_read_data>:
  10084c:	fd010113          	addi	sp,sp,-48
  100850:	02112623          	sw	ra,44(sp)
  100854:	02812423          	sw	s0,40(sp)
  100858:	02912223          	sw	s1,36(sp)
  10085c:	03010413          	addi	s0,sp,48
  100860:	fca42e23          	sw	a0,-36(s0)
  100864:	00010593          	mv	a1,sp
  100868:	00058493          	mv	s1,a1
  10086c:	001005b7          	lui	a1,0x100
  100870:	14058513          	addi	a0,a1,320 # 100140 <flashio_worker_end>
  100874:	001005b7          	lui	a1,0x100
  100878:	18058593          	addi	a1,a1,384 # 100180 <i2c_init>
  10087c:	40b505b3          	sub	a1,a0,a1
  100880:	4025d593          	srai	a1,a1,0x2
  100884:	fff58593          	addi	a1,a1,-1
  100888:	feb42223          	sw	a1,-28(s0)
  10088c:	001005b7          	lui	a1,0x100
  100890:	14058513          	addi	a0,a1,320 # 100140 <flashio_worker_end>
  100894:	001005b7          	lui	a1,0x100
  100898:	18058593          	addi	a1,a1,384 # 100180 <i2c_init>
  10089c:	40b505b3          	sub	a1,a0,a1
  1008a0:	4025d593          	srai	a1,a1,0x2
  1008a4:	00058313          	mv	t1,a1
  1008a8:	00000393          	li	t2,0
  1008ac:	01b35593          	srli	a1,t1,0x1b
  1008b0:	00539693          	slli	a3,t2,0x5
  1008b4:	00d5e6b3          	or	a3,a1,a3
  1008b8:	00531613          	slli	a2,t1,0x5
  1008bc:	001006b7          	lui	a3,0x100
  1008c0:	14068613          	addi	a2,a3,320 # 100140 <flashio_worker_end>
  1008c4:	001006b7          	lui	a3,0x100
  1008c8:	18068693          	addi	a3,a3,384 # 100180 <i2c_init>
  1008cc:	40d606b3          	sub	a3,a2,a3
  1008d0:	4026d693          	srai	a3,a3,0x2
  1008d4:	00068813          	mv	a6,a3
  1008d8:	00000893          	li	a7,0
  1008dc:	01b85693          	srli	a3,a6,0x1b
  1008e0:	00589793          	slli	a5,a7,0x5
  1008e4:	00f6e7b3          	or	a5,a3,a5
  1008e8:	00581713          	slli	a4,a6,0x5
  1008ec:	001007b7          	lui	a5,0x100
  1008f0:	14078713          	addi	a4,a5,320 # 100140 <flashio_worker_end>
  1008f4:	001007b7          	lui	a5,0x100
  1008f8:	18078793          	addi	a5,a5,384 # 100180 <i2c_init>
  1008fc:	40f707b3          	sub	a5,a4,a5
  100900:	00378793          	addi	a5,a5,3
  100904:	ffc7f793          	andi	a5,a5,-4
  100908:	00f78793          	addi	a5,a5,15
  10090c:	0047d793          	srli	a5,a5,0x4
  100910:	00479793          	slli	a5,a5,0x4
  100914:	40f10133          	sub	sp,sp,a5
  100918:	00010793          	mv	a5,sp
  10091c:	00378793          	addi	a5,a5,3
  100920:	0027d793          	srli	a5,a5,0x2
  100924:	00279793          	slli	a5,a5,0x2
  100928:	fef42023          	sw	a5,-32(s0)
  10092c:	001007b7          	lui	a5,0x100
  100930:	14078793          	addi	a5,a5,320 # 100140 <flashio_worker_end>
  100934:	fef42423          	sw	a5,-24(s0)
  100938:	fe042783          	lw	a5,-32(s0)
  10093c:	fef42623          	sw	a5,-20(s0)
  100940:	0240006f          	j	100964 <i2c_read_data+0x118>
  100944:	fe842703          	lw	a4,-24(s0)
  100948:	00470793          	addi	a5,a4,4
  10094c:	fef42423          	sw	a5,-24(s0)
  100950:	fec42783          	lw	a5,-20(s0)
  100954:	00478693          	addi	a3,a5,4
  100958:	fed42623          	sw	a3,-20(s0)
  10095c:	00072703          	lw	a4,0(a4)
  100960:	00e7a023          	sw	a4,0(a5)
  100964:	fe842703          	lw	a4,-24(s0)
  100968:	001007b7          	lui	a5,0x100
  10096c:	18078793          	addi	a5,a5,384 # 100180 <i2c_init>
  100970:	fcf71ae3          	bne	a4,a5,100944 <i2c_read_data+0xf8>
  100974:	fe042783          	lw	a5,-32(s0)
  100978:	fdc42503          	lw	a0,-36(s0)
  10097c:	000780e7          	jalr	a5
  100980:	00048113          	mv	sp,s1
  100984:	00000013          	nop
  100988:	fd040113          	addi	sp,s0,-48
  10098c:	02c12083          	lw	ra,44(sp)
  100990:	02812403          	lw	s0,40(sp)
  100994:	02412483          	lw	s1,36(sp)
  100998:	03010113          	addi	sp,sp,48
  10099c:	00008067          	ret

001009a0 <read_i2c_slave_byte_eeprom>:
  1009a0:	fe010113          	addi	sp,sp,-32
  1009a4:	00112e23          	sw	ra,28(sp)
  1009a8:	00812c23          	sw	s0,24(sp)
  1009ac:	02010413          	addi	s0,sp,32
  1009b0:	fea42623          	sw	a0,-20(s0)
  1009b4:	feb42423          	sw	a1,-24(s0)
  1009b8:	fec42223          	sw	a2,-28(s0)
  1009bc:	030007b7          	lui	a5,0x3000
  1009c0:	0dc78793          	addi	a5,a5,220 # 30000dc <_etext+0x2efe548>
  1009c4:	fec42703          	lw	a4,-20(s0)
  1009c8:	00e7a023          	sw	a4,0(a5)
  1009cc:	030007b7          	lui	a5,0x3000
  1009d0:	0d878793          	addi	a5,a5,216 # 30000d8 <_etext+0x2efe544>
  1009d4:	09000713          	li	a4,144
  1009d8:	00e7a023          	sw	a4,0(a5)
  1009dc:	00000013          	nop
  1009e0:	030007b7          	lui	a5,0x3000
  1009e4:	0d878793          	addi	a5,a5,216 # 30000d8 <_etext+0x2efe544>
  1009e8:	0007a783          	lw	a5,0(a5)
  1009ec:	0027f793          	andi	a5,a5,2
  1009f0:	fe0798e3          	bnez	a5,1009e0 <read_i2c_slave_byte_eeprom+0x40>
  1009f4:	030007b7          	lui	a5,0x3000
  1009f8:	0d878793          	addi	a5,a5,216 # 30000d8 <_etext+0x2efe544>
  1009fc:	0007a783          	lw	a5,0(a5)
  100a00:	0807f713          	andi	a4,a5,128
  100a04:	00100793          	li	a5,1
  100a08:	00f71e63          	bne	a4,a5,100a24 <read_i2c_slave_byte_eeprom+0x84>
  100a0c:	030007b7          	lui	a5,0x3000
  100a10:	0d878793          	addi	a5,a5,216 # 30000d8 <_etext+0x2efe544>
  100a14:	04000713          	li	a4,64
  100a18:	00e7a023          	sw	a4,0(a5)
  100a1c:	00000793          	li	a5,0
  100a20:	1840006f          	j	100ba4 <read_i2c_slave_byte_eeprom+0x204>
  100a24:	fe842783          	lw	a5,-24(s0)
  100a28:	0087d713          	srli	a4,a5,0x8
  100a2c:	030007b7          	lui	a5,0x3000
  100a30:	0dc78793          	addi	a5,a5,220 # 30000dc <_etext+0x2efe548>
  100a34:	0ff77713          	andi	a4,a4,255
  100a38:	00e7a023          	sw	a4,0(a5)
  100a3c:	030007b7          	lui	a5,0x3000
  100a40:	0d878793          	addi	a5,a5,216 # 30000d8 <_etext+0x2efe544>
  100a44:	01000713          	li	a4,16
  100a48:	00e7a023          	sw	a4,0(a5)
  100a4c:	00000013          	nop
  100a50:	030007b7          	lui	a5,0x3000
  100a54:	0d878793          	addi	a5,a5,216 # 30000d8 <_etext+0x2efe544>
  100a58:	0007a783          	lw	a5,0(a5)
  100a5c:	0027f793          	andi	a5,a5,2
  100a60:	fe0798e3          	bnez	a5,100a50 <read_i2c_slave_byte_eeprom+0xb0>
  100a64:	030007b7          	lui	a5,0x3000
  100a68:	0d878793          	addi	a5,a5,216 # 30000d8 <_etext+0x2efe544>
  100a6c:	0007a783          	lw	a5,0(a5)
  100a70:	0807f713          	andi	a4,a5,128
  100a74:	00100793          	li	a5,1
  100a78:	00f71e63          	bne	a4,a5,100a94 <read_i2c_slave_byte_eeprom+0xf4>
  100a7c:	030007b7          	lui	a5,0x3000
  100a80:	0d878793          	addi	a5,a5,216 # 30000d8 <_etext+0x2efe544>
  100a84:	04000713          	li	a4,64
  100a88:	00e7a023          	sw	a4,0(a5)
  100a8c:	00000793          	li	a5,0
  100a90:	1140006f          	j	100ba4 <read_i2c_slave_byte_eeprom+0x204>
  100a94:	fe842703          	lw	a4,-24(s0)
  100a98:	030007b7          	lui	a5,0x3000
  100a9c:	0dc78793          	addi	a5,a5,220 # 30000dc <_etext+0x2efe548>
  100aa0:	0ff77713          	andi	a4,a4,255
  100aa4:	00e7a023          	sw	a4,0(a5)
  100aa8:	030007b7          	lui	a5,0x3000
  100aac:	0d878793          	addi	a5,a5,216 # 30000d8 <_etext+0x2efe544>
  100ab0:	01000713          	li	a4,16
  100ab4:	00e7a023          	sw	a4,0(a5)
  100ab8:	00000013          	nop
  100abc:	030007b7          	lui	a5,0x3000
  100ac0:	0d878793          	addi	a5,a5,216 # 30000d8 <_etext+0x2efe544>
  100ac4:	0007a783          	lw	a5,0(a5)
  100ac8:	0027f793          	andi	a5,a5,2
  100acc:	fe0798e3          	bnez	a5,100abc <read_i2c_slave_byte_eeprom+0x11c>
  100ad0:	030007b7          	lui	a5,0x3000
  100ad4:	0d878793          	addi	a5,a5,216 # 30000d8 <_etext+0x2efe544>
  100ad8:	0007a783          	lw	a5,0(a5)
  100adc:	0807f713          	andi	a4,a5,128
  100ae0:	00100793          	li	a5,1
  100ae4:	00f71e63          	bne	a4,a5,100b00 <read_i2c_slave_byte_eeprom+0x160>
  100ae8:	030007b7          	lui	a5,0x3000
  100aec:	0d878793          	addi	a5,a5,216 # 30000d8 <_etext+0x2efe544>
  100af0:	04000713          	li	a4,64
  100af4:	00e7a023          	sw	a4,0(a5)
  100af8:	00000793          	li	a5,0
  100afc:	0a80006f          	j	100ba4 <read_i2c_slave_byte_eeprom+0x204>
  100b00:	fec42703          	lw	a4,-20(s0)
  100b04:	030007b7          	lui	a5,0x3000
  100b08:	0dc78793          	addi	a5,a5,220 # 30000dc <_etext+0x2efe548>
  100b0c:	00176713          	ori	a4,a4,1
  100b10:	00e7a023          	sw	a4,0(a5)
  100b14:	030007b7          	lui	a5,0x3000
  100b18:	0d878793          	addi	a5,a5,216 # 30000d8 <_etext+0x2efe544>
  100b1c:	09000713          	li	a4,144
  100b20:	00e7a023          	sw	a4,0(a5)
  100b24:	00000013          	nop
  100b28:	030007b7          	lui	a5,0x3000
  100b2c:	0d878793          	addi	a5,a5,216 # 30000d8 <_etext+0x2efe544>
  100b30:	0007a783          	lw	a5,0(a5)
  100b34:	0027f793          	andi	a5,a5,2
  100b38:	fe0798e3          	bnez	a5,100b28 <read_i2c_slave_byte_eeprom+0x188>
  100b3c:	030007b7          	lui	a5,0x3000
  100b40:	0d878793          	addi	a5,a5,216 # 30000d8 <_etext+0x2efe544>
  100b44:	0007a783          	lw	a5,0(a5)
  100b48:	0807f713          	andi	a4,a5,128
  100b4c:	00100793          	li	a5,1
  100b50:	00f71e63          	bne	a4,a5,100b6c <read_i2c_slave_byte_eeprom+0x1cc>
  100b54:	030007b7          	lui	a5,0x3000
  100b58:	0d878793          	addi	a5,a5,216 # 30000d8 <_etext+0x2efe544>
  100b5c:	04000713          	li	a4,64
  100b60:	00e7a023          	sw	a4,0(a5)
  100b64:	00000793          	li	a5,0
  100b68:	03c0006f          	j	100ba4 <read_i2c_slave_byte_eeprom+0x204>
  100b6c:	fe442503          	lw	a0,-28(s0)
  100b70:	cddff0ef          	jal	ra,10084c <i2c_read_data>
  100b74:	030007b7          	lui	a5,0x3000
  100b78:	00e00713          	li	a4,14
  100b7c:	00e7a023          	sw	a4,0(a5) # 3000000 <_etext+0x2efe46c>
  100b80:	030007b7          	lui	a5,0x3000
  100b84:	0d878793          	addi	a5,a5,216 # 30000d8 <_etext+0x2efe544>
  100b88:	0007a783          	lw	a5,0(a5)
  100b8c:	0807f713          	andi	a4,a5,128
  100b90:	00100793          	li	a5,1
  100b94:	00f71663          	bne	a4,a5,100ba0 <read_i2c_slave_byte_eeprom+0x200>
  100b98:	00000793          	li	a5,0
  100b9c:	0080006f          	j	100ba4 <read_i2c_slave_byte_eeprom+0x204>
  100ba0:	00100793          	li	a5,1
  100ba4:	00078513          	mv	a0,a5
  100ba8:	01c12083          	lw	ra,28(sp)
  100bac:	01812403          	lw	s0,24(sp)
  100bb0:	02010113          	addi	sp,sp,32
  100bb4:	00008067          	ret

00100bb8 <read_i2c_slave_bytes>:
  100bb8:	fd010113          	addi	sp,sp,-48
  100bbc:	02812623          	sw	s0,44(sp)
  100bc0:	03010413          	addi	s0,sp,48
  100bc4:	fca42e23          	sw	a0,-36(s0)
  100bc8:	fcb42c23          	sw	a1,-40(s0)
  100bcc:	fcc42a23          	sw	a2,-44(s0)
  100bd0:	fcd42823          	sw	a3,-48(s0)
  100bd4:	fdc42703          	lw	a4,-36(s0)
  100bd8:	030007b7          	lui	a5,0x3000
  100bdc:	0dc78793          	addi	a5,a5,220 # 30000dc <_etext+0x2efe548>
  100be0:	0ff77713          	andi	a4,a4,255
  100be4:	00e78023          	sb	a4,0(a5)
  100be8:	030007b7          	lui	a5,0x3000
  100bec:	0d878793          	addi	a5,a5,216 # 30000d8 <_etext+0x2efe544>
  100bf0:	f9000713          	li	a4,-112
  100bf4:	00e78023          	sb	a4,0(a5)
  100bf8:	00000013          	nop
  100bfc:	030007b7          	lui	a5,0x3000
  100c00:	0d878793          	addi	a5,a5,216 # 30000d8 <_etext+0x2efe544>
  100c04:	0007c783          	lbu	a5,0(a5)
  100c08:	0ff7f793          	andi	a5,a5,255
  100c0c:	0027f793          	andi	a5,a5,2
  100c10:	fe0796e3          	bnez	a5,100bfc <read_i2c_slave_bytes+0x44>
  100c14:	030007b7          	lui	a5,0x3000
  100c18:	0d878793          	addi	a5,a5,216 # 30000d8 <_etext+0x2efe544>
  100c1c:	0007c783          	lbu	a5,0(a5)
  100c20:	0ff7f793          	andi	a5,a5,255
  100c24:	0807f713          	andi	a4,a5,128
  100c28:	00100793          	li	a5,1
  100c2c:	00f71e63          	bne	a4,a5,100c48 <read_i2c_slave_bytes+0x90>
  100c30:	030007b7          	lui	a5,0x3000
  100c34:	0d878793          	addi	a5,a5,216 # 30000d8 <_etext+0x2efe544>
  100c38:	04000713          	li	a4,64
  100c3c:	00e78023          	sb	a4,0(a5)
  100c40:	00000793          	li	a5,0
  100c44:	1c40006f          	j	100e08 <read_i2c_slave_bytes+0x250>
  100c48:	fd842703          	lw	a4,-40(s0)
  100c4c:	030007b7          	lui	a5,0x3000
  100c50:	0dc78793          	addi	a5,a5,220 # 30000dc <_etext+0x2efe548>
  100c54:	0ff77713          	andi	a4,a4,255
  100c58:	00e78023          	sb	a4,0(a5)
  100c5c:	030007b7          	lui	a5,0x3000
  100c60:	0d878793          	addi	a5,a5,216 # 30000d8 <_etext+0x2efe544>
  100c64:	01000713          	li	a4,16
  100c68:	00e78023          	sb	a4,0(a5)
  100c6c:	00000013          	nop
  100c70:	030007b7          	lui	a5,0x3000
  100c74:	0d878793          	addi	a5,a5,216 # 30000d8 <_etext+0x2efe544>
  100c78:	0007c783          	lbu	a5,0(a5)
  100c7c:	0ff7f793          	andi	a5,a5,255
  100c80:	0027f793          	andi	a5,a5,2
  100c84:	fe0796e3          	bnez	a5,100c70 <read_i2c_slave_bytes+0xb8>
  100c88:	030007b7          	lui	a5,0x3000
  100c8c:	0d878793          	addi	a5,a5,216 # 30000d8 <_etext+0x2efe544>
  100c90:	0007c783          	lbu	a5,0(a5)
  100c94:	0ff7f793          	andi	a5,a5,255
  100c98:	0807f713          	andi	a4,a5,128
  100c9c:	00100793          	li	a5,1
  100ca0:	00f71e63          	bne	a4,a5,100cbc <read_i2c_slave_bytes+0x104>
  100ca4:	030007b7          	lui	a5,0x3000
  100ca8:	0d878793          	addi	a5,a5,216 # 30000d8 <_etext+0x2efe544>
  100cac:	04000713          	li	a4,64
  100cb0:	00e78023          	sb	a4,0(a5)
  100cb4:	00000793          	li	a5,0
  100cb8:	1500006f          	j	100e08 <read_i2c_slave_bytes+0x250>
  100cbc:	fdc42783          	lw	a5,-36(s0)
  100cc0:	0ff7f713          	andi	a4,a5,255
  100cc4:	030007b7          	lui	a5,0x3000
  100cc8:	0dc78793          	addi	a5,a5,220 # 30000dc <_etext+0x2efe548>
  100ccc:	00176713          	ori	a4,a4,1
  100cd0:	0ff77713          	andi	a4,a4,255
  100cd4:	00e78023          	sb	a4,0(a5)
  100cd8:	030007b7          	lui	a5,0x3000
  100cdc:	0d878793          	addi	a5,a5,216 # 30000d8 <_etext+0x2efe544>
  100ce0:	f9000713          	li	a4,-112
  100ce4:	00e78023          	sb	a4,0(a5)
  100ce8:	00000013          	nop
  100cec:	030007b7          	lui	a5,0x3000
  100cf0:	0d878793          	addi	a5,a5,216 # 30000d8 <_etext+0x2efe544>
  100cf4:	0007c783          	lbu	a5,0(a5)
  100cf8:	0ff7f793          	andi	a5,a5,255
  100cfc:	0027f793          	andi	a5,a5,2
  100d00:	fe0796e3          	bnez	a5,100cec <read_i2c_slave_bytes+0x134>
  100d04:	030007b7          	lui	a5,0x3000
  100d08:	0d878793          	addi	a5,a5,216 # 30000d8 <_etext+0x2efe544>
  100d0c:	0007c783          	lbu	a5,0(a5)
  100d10:	0ff7f793          	andi	a5,a5,255
  100d14:	0807f713          	andi	a4,a5,128
  100d18:	00100793          	li	a5,1
  100d1c:	00f71e63          	bne	a4,a5,100d38 <read_i2c_slave_bytes+0x180>
  100d20:	030007b7          	lui	a5,0x3000
  100d24:	0d878793          	addi	a5,a5,216 # 30000d8 <_etext+0x2efe544>
  100d28:	04000713          	li	a4,64
  100d2c:	00e78023          	sb	a4,0(a5)
  100d30:	00000793          	li	a5,0
  100d34:	0d40006f          	j	100e08 <read_i2c_slave_bytes+0x250>
  100d38:	fe042623          	sw	zero,-20(s0)
  100d3c:	0bc0006f          	j	100df8 <read_i2c_slave_bytes+0x240>
  100d40:	fd042783          	lw	a5,-48(s0)
  100d44:	fff78793          	addi	a5,a5,-1
  100d48:	fec42703          	lw	a4,-20(s0)
  100d4c:	00f75c63          	bge	a4,a5,100d64 <read_i2c_slave_bytes+0x1ac>
  100d50:	030007b7          	lui	a5,0x3000
  100d54:	0d878793          	addi	a5,a5,216 # 30000d8 <_etext+0x2efe544>
  100d58:	02000713          	li	a4,32
  100d5c:	00e78023          	sb	a4,0(a5)
  100d60:	0140006f          	j	100d74 <read_i2c_slave_bytes+0x1bc>
  100d64:	030007b7          	lui	a5,0x3000
  100d68:	0d878793          	addi	a5,a5,216 # 30000d8 <_etext+0x2efe544>
  100d6c:	06000713          	li	a4,96
  100d70:	00e78023          	sb	a4,0(a5)
  100d74:	00000013          	nop
  100d78:	030007b7          	lui	a5,0x3000
  100d7c:	0d878793          	addi	a5,a5,216 # 30000d8 <_etext+0x2efe544>
  100d80:	0007c783          	lbu	a5,0(a5)
  100d84:	0ff7f793          	andi	a5,a5,255
  100d88:	0027f793          	andi	a5,a5,2
  100d8c:	fe0796e3          	bnez	a5,100d78 <read_i2c_slave_bytes+0x1c0>
  100d90:	030007b7          	lui	a5,0x3000
  100d94:	0d878793          	addi	a5,a5,216 # 30000d8 <_etext+0x2efe544>
  100d98:	0007c783          	lbu	a5,0(a5)
  100d9c:	0ff7f793          	andi	a5,a5,255
  100da0:	0807f713          	andi	a4,a5,128
  100da4:	00100793          	li	a5,1
  100da8:	00f71e63          	bne	a4,a5,100dc4 <read_i2c_slave_bytes+0x20c>
  100dac:	030007b7          	lui	a5,0x3000
  100db0:	0d878793          	addi	a5,a5,216 # 30000d8 <_etext+0x2efe544>
  100db4:	04000713          	li	a4,64
  100db8:	00e78023          	sb	a4,0(a5)
  100dbc:	00000793          	li	a5,0
  100dc0:	0480006f          	j	100e08 <read_i2c_slave_bytes+0x250>
  100dc4:	030007b7          	lui	a5,0x3000
  100dc8:	0dc78793          	addi	a5,a5,220 # 30000dc <_etext+0x2efe548>
  100dcc:	0007c783          	lbu	a5,0(a5)
  100dd0:	0ff7f693          	andi	a3,a5,255
  100dd4:	fec42783          	lw	a5,-20(s0)
  100dd8:	00279793          	slli	a5,a5,0x2
  100ddc:	fd442703          	lw	a4,-44(s0)
  100de0:	00f707b3          	add	a5,a4,a5
  100de4:	00068713          	mv	a4,a3
  100de8:	00e7a023          	sw	a4,0(a5)
  100dec:	fec42783          	lw	a5,-20(s0)
  100df0:	00178793          	addi	a5,a5,1
  100df4:	fef42623          	sw	a5,-20(s0)
  100df8:	fec42703          	lw	a4,-20(s0)
  100dfc:	fd042783          	lw	a5,-48(s0)
  100e00:	f4f740e3          	blt	a4,a5,100d40 <read_i2c_slave_bytes+0x188>
  100e04:	00100793          	li	a5,1
  100e08:	00078513          	mv	a0,a5
  100e0c:	02c12403          	lw	s0,44(sp)
  100e10:	03010113          	addi	sp,sp,48
  100e14:	00008067          	ret

00100e18 <flashio>:
  100e18:	fd010113          	addi	sp,sp,-48
  100e1c:	02112623          	sw	ra,44(sp)
  100e20:	02812423          	sw	s0,40(sp)
  100e24:	02912223          	sw	s1,36(sp)
  100e28:	03010413          	addi	s0,sp,48
  100e2c:	fca42e23          	sw	a0,-36(s0)
  100e30:	fcb42c23          	sw	a1,-40(s0)
  100e34:	00060693          	mv	a3,a2
  100e38:	fcd40ba3          	sb	a3,-41(s0)
  100e3c:	00010693          	mv	a3,sp
  100e40:	00068493          	mv	s1,a3
  100e44:	001006b7          	lui	a3,0x100
  100e48:	14068613          	addi	a2,a3,320 # 100140 <flashio_worker_end>
  100e4c:	001006b7          	lui	a3,0x100
  100e50:	0a868693          	addi	a3,a3,168 # 1000a8 <flashio_worker_begin>
  100e54:	40d606b3          	sub	a3,a2,a3
  100e58:	4026d693          	srai	a3,a3,0x2
  100e5c:	fff68693          	addi	a3,a3,-1
  100e60:	fed42223          	sw	a3,-28(s0)
  100e64:	001006b7          	lui	a3,0x100
  100e68:	14068613          	addi	a2,a3,320 # 100140 <flashio_worker_end>
  100e6c:	001006b7          	lui	a3,0x100
  100e70:	0a868693          	addi	a3,a3,168 # 1000a8 <flashio_worker_begin>
  100e74:	40d606b3          	sub	a3,a2,a3
  100e78:	4026d693          	srai	a3,a3,0x2
  100e7c:	00068e13          	mv	t3,a3
  100e80:	00000e93          	li	t4,0
  100e84:	01be5693          	srli	a3,t3,0x1b
  100e88:	005e9893          	slli	a7,t4,0x5
  100e8c:	0116e8b3          	or	a7,a3,a7
  100e90:	005e1813          	slli	a6,t3,0x5
  100e94:	001006b7          	lui	a3,0x100
  100e98:	14068613          	addi	a2,a3,320 # 100140 <flashio_worker_end>
  100e9c:	001006b7          	lui	a3,0x100
  100ea0:	0a868693          	addi	a3,a3,168 # 1000a8 <flashio_worker_begin>
  100ea4:	40d606b3          	sub	a3,a2,a3
  100ea8:	4026d693          	srai	a3,a3,0x2
  100eac:	00068313          	mv	t1,a3
  100eb0:	00000393          	li	t2,0
  100eb4:	01b35693          	srli	a3,t1,0x1b
  100eb8:	00539793          	slli	a5,t2,0x5
  100ebc:	00f6e7b3          	or	a5,a3,a5
  100ec0:	00531713          	slli	a4,t1,0x5
  100ec4:	001007b7          	lui	a5,0x100
  100ec8:	14078713          	addi	a4,a5,320 # 100140 <flashio_worker_end>
  100ecc:	001007b7          	lui	a5,0x100
  100ed0:	0a878793          	addi	a5,a5,168 # 1000a8 <flashio_worker_begin>
  100ed4:	40f707b3          	sub	a5,a4,a5
  100ed8:	00378793          	addi	a5,a5,3
  100edc:	ffc7f793          	andi	a5,a5,-4
  100ee0:	00f78793          	addi	a5,a5,15
  100ee4:	0047d793          	srli	a5,a5,0x4
  100ee8:	00479793          	slli	a5,a5,0x4
  100eec:	40f10133          	sub	sp,sp,a5
  100ef0:	00010793          	mv	a5,sp
  100ef4:	00378793          	addi	a5,a5,3
  100ef8:	0027d793          	srli	a5,a5,0x2
  100efc:	00279793          	slli	a5,a5,0x2
  100f00:	fef42023          	sw	a5,-32(s0)
  100f04:	001007b7          	lui	a5,0x100
  100f08:	0a878793          	addi	a5,a5,168 # 1000a8 <flashio_worker_begin>
  100f0c:	fef42423          	sw	a5,-24(s0)
  100f10:	fe042783          	lw	a5,-32(s0)
  100f14:	fef42623          	sw	a5,-20(s0)
  100f18:	0240006f          	j	100f3c <flashio+0x124>
  100f1c:	fe842703          	lw	a4,-24(s0)
  100f20:	00470793          	addi	a5,a4,4
  100f24:	fef42423          	sw	a5,-24(s0)
  100f28:	fec42783          	lw	a5,-20(s0)
  100f2c:	00478693          	addi	a3,a5,4
  100f30:	fed42623          	sw	a3,-20(s0)
  100f34:	00072703          	lw	a4,0(a4)
  100f38:	00e7a023          	sw	a4,0(a5)
  100f3c:	fe842703          	lw	a4,-24(s0)
  100f40:	001007b7          	lui	a5,0x100
  100f44:	14078793          	addi	a5,a5,320 # 100140 <flashio_worker_end>
  100f48:	fcf71ae3          	bne	a4,a5,100f1c <flashio+0x104>
  100f4c:	fe042783          	lw	a5,-32(s0)
  100f50:	00078693          	mv	a3,a5
  100f54:	fd842783          	lw	a5,-40(s0)
  100f58:	fd744703          	lbu	a4,-41(s0)
  100f5c:	00070613          	mv	a2,a4
  100f60:	00078593          	mv	a1,a5
  100f64:	fdc42503          	lw	a0,-36(s0)
  100f68:	000680e7          	jalr	a3
  100f6c:	00048113          	mv	sp,s1
  100f70:	00000013          	nop
  100f74:	fd040113          	addi	sp,s0,-48
  100f78:	02c12083          	lw	ra,44(sp)
  100f7c:	02812403          	lw	s0,40(sp)
  100f80:	02412483          	lw	s1,36(sp)
  100f84:	03010113          	addi	sp,sp,48
  100f88:	00008067          	ret

00100f8c <set_flash_latency>:
  100f8c:	fd010113          	addi	sp,sp,-48
  100f90:	02112623          	sw	ra,44(sp)
  100f94:	02812423          	sw	s0,40(sp)
  100f98:	03010413          	addi	s0,sp,48
  100f9c:	00050793          	mv	a5,a0
  100fa0:	fcf40fa3          	sb	a5,-33(s0)
  100fa4:	020007b7          	lui	a5,0x2000
  100fa8:	0007a703          	lw	a4,0(a5) # 2000000 <_etext+0x1efe46c>
  100fac:	ff8107b7          	lui	a5,0xff810
  100fb0:	fff78793          	addi	a5,a5,-1 # ff80ffff <_etext+0xff70e46b>
  100fb4:	00f776b3          	and	a3,a4,a5
  100fb8:	fdf44783          	lbu	a5,-33(s0)
  100fbc:	01079793          	slli	a5,a5,0x10
  100fc0:	00078713          	mv	a4,a5
  100fc4:	000f07b7          	lui	a5,0xf0
  100fc8:	00f77733          	and	a4,a4,a5
  100fcc:	020007b7          	lui	a5,0x2000
  100fd0:	00e6e733          	or	a4,a3,a4
  100fd4:	00e7a023          	sw	a4,0(a5) # 2000000 <_etext+0x1efe46c>
  100fd8:	010007b7          	lui	a5,0x1000
  100fdc:	26078793          	addi	a5,a5,608 # 1000260 <_etext+0xefe6cc>
  100fe0:	fef42423          	sw	a5,-24(s0)
  100fe4:	fdf44783          	lbu	a5,-33(s0)
  100fe8:	0707e793          	ori	a5,a5,112
  100fec:	0ff7f793          	andi	a5,a5,255
  100ff0:	01879793          	slli	a5,a5,0x18
  100ff4:	fef42623          	sw	a5,-20(s0)
  100ff8:	fe840793          	addi	a5,s0,-24
  100ffc:	05000613          	li	a2,80
  101000:	00500593          	li	a1,5
  101004:	00078513          	mv	a0,a5
  101008:	e11ff0ef          	jal	ra,100e18 <flashio>
  10100c:	00000013          	nop
  101010:	02c12083          	lw	ra,44(sp)
  101014:	02812403          	lw	s0,40(sp)
  101018:	03010113          	addi	sp,sp,48
  10101c:	00008067          	ret

00101020 <putchar>:
  101020:	fe010113          	addi	sp,sp,-32
  101024:	00112e23          	sw	ra,28(sp)
  101028:	00812c23          	sw	s0,24(sp)
  10102c:	02010413          	addi	s0,sp,32
  101030:	00050793          	mv	a5,a0
  101034:	fef407a3          	sb	a5,-17(s0)
  101038:	fef44703          	lbu	a4,-17(s0)
  10103c:	00a00793          	li	a5,10
  101040:	00f71663          	bne	a4,a5,10104c <putchar+0x2c>
  101044:	00d00513          	li	a0,13
  101048:	fd9ff0ef          	jal	ra,101020 <putchar>
  10104c:	030007b7          	lui	a5,0x3000
  101050:	07c78793          	addi	a5,a5,124 # 300007c <_etext+0x2efe4e8>
  101054:	fef44703          	lbu	a4,-17(s0)
  101058:	00e7a023          	sw	a4,0(a5)
  10105c:	00000013          	nop
  101060:	01c12083          	lw	ra,28(sp)
  101064:	01812403          	lw	s0,24(sp)
  101068:	02010113          	addi	sp,sp,32
  10106c:	00008067          	ret

00101070 <print>:
  101070:	fe010113          	addi	sp,sp,-32
  101074:	00112e23          	sw	ra,28(sp)
  101078:	00812c23          	sw	s0,24(sp)
  10107c:	02010413          	addi	s0,sp,32
  101080:	fea42623          	sw	a0,-20(s0)
  101084:	01c0006f          	j	1010a0 <print+0x30>
  101088:	fec42783          	lw	a5,-20(s0)
  10108c:	00178713          	addi	a4,a5,1
  101090:	fee42623          	sw	a4,-20(s0)
  101094:	0007c783          	lbu	a5,0(a5)
  101098:	00078513          	mv	a0,a5
  10109c:	f85ff0ef          	jal	ra,101020 <putchar>
  1010a0:	fec42783          	lw	a5,-20(s0)
  1010a4:	0007c783          	lbu	a5,0(a5)
  1010a8:	fe0790e3          	bnez	a5,101088 <print+0x18>
  1010ac:	00000013          	nop
  1010b0:	00000013          	nop
  1010b4:	01c12083          	lw	ra,28(sp)
  1010b8:	01812403          	lw	s0,24(sp)
  1010bc:	02010113          	addi	sp,sp,32
  1010c0:	00008067          	ret

001010c4 <print_ln>:
  1010c4:	fd010113          	addi	sp,sp,-48
  1010c8:	02112623          	sw	ra,44(sp)
  1010cc:	02812423          	sw	s0,40(sp)
  1010d0:	03010413          	addi	s0,sp,48
  1010d4:	fca42e23          	sw	a0,-36(s0)
  1010d8:	fe042623          	sw	zero,-20(s0)
  1010dc:	0400006f          	j	10111c <print_ln+0x58>
  1010e0:	fdc42783          	lw	a5,-36(s0)
  1010e4:	0007c783          	lbu	a5,0(a5)
  1010e8:	02078063          	beqz	a5,101108 <print_ln+0x44>
  1010ec:	fdc42783          	lw	a5,-36(s0)
  1010f0:	00178713          	addi	a4,a5,1
  1010f4:	fce42e23          	sw	a4,-36(s0)
  1010f8:	0007c783          	lbu	a5,0(a5)
  1010fc:	00078513          	mv	a0,a5
  101100:	f21ff0ef          	jal	ra,101020 <putchar>
  101104:	00c0006f          	j	101110 <print_ln+0x4c>
  101108:	02000513          	li	a0,32
  10110c:	f15ff0ef          	jal	ra,101020 <putchar>
  101110:	fec42783          	lw	a5,-20(s0)
  101114:	00178793          	addi	a5,a5,1
  101118:	fef42623          	sw	a5,-20(s0)
  10111c:	fec42703          	lw	a4,-20(s0)
  101120:	01300793          	li	a5,19
  101124:	fae7dee3          	bge	a5,a4,1010e0 <print_ln+0x1c>
  101128:	00000013          	nop
  10112c:	00000013          	nop
  101130:	02c12083          	lw	ra,44(sp)
  101134:	02812403          	lw	s0,40(sp)
  101138:	03010113          	addi	sp,sp,48
  10113c:	00008067          	ret

00101140 <clear>:
  101140:	ff010113          	addi	sp,sp,-16
  101144:	00812623          	sw	s0,12(sp)
  101148:	01010413          	addi	s0,sp,16
  10114c:	030007b7          	lui	a5,0x3000
  101150:	07c78793          	addi	a5,a5,124 # 300007c <_etext+0x2efe4e8>
  101154:	07c00713          	li	a4,124
  101158:	00e7a023          	sw	a4,0(a5)
  10115c:	030007b7          	lui	a5,0x3000
  101160:	07c78793          	addi	a5,a5,124 # 300007c <_etext+0x2efe4e8>
  101164:	02d00713          	li	a4,45
  101168:	00e7a023          	sw	a4,0(a5)
  10116c:	00000013          	nop
  101170:	00c12403          	lw	s0,12(sp)
  101174:	01010113          	addi	sp,sp,16
  101178:	00008067          	ret

0010117c <home>:
  10117c:	ff010113          	addi	sp,sp,-16
  101180:	00812623          	sw	s0,12(sp)
  101184:	01010413          	addi	s0,sp,16
  101188:	030007b7          	lui	a5,0x3000
  10118c:	07c78793          	addi	a5,a5,124 # 300007c <_etext+0x2efe4e8>
  101190:	0fe00713          	li	a4,254
  101194:	00e7a023          	sw	a4,0(a5)
  101198:	030007b7          	lui	a5,0x3000
  10119c:	07c78793          	addi	a5,a5,124 # 300007c <_etext+0x2efe4e8>
  1011a0:	00200713          	li	a4,2
  1011a4:	00e7a023          	sw	a4,0(a5)
  1011a8:	00000013          	nop
  1011ac:	00c12403          	lw	s0,12(sp)
  1011b0:	01010113          	addi	sp,sp,16
  1011b4:	00008067          	ret

001011b8 <print_hex>:
  1011b8:	fd010113          	addi	sp,sp,-48
  1011bc:	02112623          	sw	ra,44(sp)
  1011c0:	02812423          	sw	s0,40(sp)
  1011c4:	03010413          	addi	s0,sp,48
  1011c8:	fca42e23          	sw	a0,-36(s0)
  1011cc:	fcb42c23          	sw	a1,-40(s0)
  1011d0:	fd842783          	lw	a5,-40(s0)
  1011d4:	fff78793          	addi	a5,a5,-1
  1011d8:	fef42623          	sw	a5,-20(s0)
  1011dc:	0440006f          	j	101220 <print_hex+0x68>
  1011e0:	fec42783          	lw	a5,-20(s0)
  1011e4:	00279793          	slli	a5,a5,0x2
  1011e8:	fdc42703          	lw	a4,-36(s0)
  1011ec:	00f757b3          	srl	a5,a4,a5
  1011f0:	00f7f793          	andi	a5,a5,15
  1011f4:	00102737          	lui	a4,0x102
  1011f8:	b0c70713          	addi	a4,a4,-1268 # 101b0c <main+0xb4>
  1011fc:	00f707b3          	add	a5,a4,a5
  101200:	0007c783          	lbu	a5,0(a5)
  101204:	fef405a3          	sb	a5,-21(s0)
  101208:	feb44783          	lbu	a5,-21(s0)
  10120c:	00078513          	mv	a0,a5
  101210:	e11ff0ef          	jal	ra,101020 <putchar>
  101214:	fec42783          	lw	a5,-20(s0)
  101218:	fff78793          	addi	a5,a5,-1
  10121c:	fef42623          	sw	a5,-20(s0)
  101220:	fec42783          	lw	a5,-20(s0)
  101224:	fa07dee3          	bgez	a5,1011e0 <print_hex+0x28>
  101228:	00000013          	nop
  10122c:	00000013          	nop
  101230:	02c12083          	lw	ra,44(sp)
  101234:	02812403          	lw	s0,40(sp)
  101238:	03010113          	addi	sp,sp,48
  10123c:	00008067          	ret

00101240 <print_dec>:
  101240:	fe010113          	addi	sp,sp,-32
  101244:	00112e23          	sw	ra,28(sp)
  101248:	00812c23          	sw	s0,24(sp)
  10124c:	02010413          	addi	s0,sp,32
  101250:	fea42623          	sw	a0,-20(s0)
  101254:	fec42703          	lw	a4,-20(s0)
  101258:	7cf00793          	li	a5,1999
  10125c:	00e7fa63          	bgeu	a5,a4,101270 <print_dec+0x30>
  101260:	001027b7          	lui	a5,0x102
  101264:	b2078513          	addi	a0,a5,-1248 # 101b20 <main+0xc8>
  101268:	e09ff0ef          	jal	ra,101070 <print>
  10126c:	4100006f          	j	10167c <print_dec+0x43c>
  101270:	fec42703          	lw	a4,-20(s0)
  101274:	3e700793          	li	a5,999
  101278:	00e7fe63          	bgeu	a5,a4,101294 <print_dec+0x54>
  10127c:	03100513          	li	a0,49
  101280:	da1ff0ef          	jal	ra,101020 <putchar>
  101284:	fec42783          	lw	a5,-20(s0)
  101288:	c1878793          	addi	a5,a5,-1000
  10128c:	fef42623          	sw	a5,-20(s0)
  101290:	00c0006f          	j	10129c <print_dec+0x5c>
  101294:	02000513          	li	a0,32
  101298:	d89ff0ef          	jal	ra,101020 <putchar>
  10129c:	fec42703          	lw	a4,-20(s0)
  1012a0:	38300793          	li	a5,899
  1012a4:	00e7fe63          	bgeu	a5,a4,1012c0 <print_dec+0x80>
  1012a8:	03900513          	li	a0,57
  1012ac:	d75ff0ef          	jal	ra,101020 <putchar>
  1012b0:	fec42783          	lw	a5,-20(s0)
  1012b4:	c7c78793          	addi	a5,a5,-900
  1012b8:	fef42623          	sw	a5,-20(s0)
  1012bc:	12c0006f          	j	1013e8 <print_dec+0x1a8>
  1012c0:	fec42703          	lw	a4,-20(s0)
  1012c4:	31f00793          	li	a5,799
  1012c8:	00e7fe63          	bgeu	a5,a4,1012e4 <print_dec+0xa4>
  1012cc:	03800513          	li	a0,56
  1012d0:	d51ff0ef          	jal	ra,101020 <putchar>
  1012d4:	fec42783          	lw	a5,-20(s0)
  1012d8:	ce078793          	addi	a5,a5,-800
  1012dc:	fef42623          	sw	a5,-20(s0)
  1012e0:	1080006f          	j	1013e8 <print_dec+0x1a8>
  1012e4:	fec42703          	lw	a4,-20(s0)
  1012e8:	2bb00793          	li	a5,699
  1012ec:	00e7fe63          	bgeu	a5,a4,101308 <print_dec+0xc8>
  1012f0:	03700513          	li	a0,55
  1012f4:	d2dff0ef          	jal	ra,101020 <putchar>
  1012f8:	fec42783          	lw	a5,-20(s0)
  1012fc:	d4478793          	addi	a5,a5,-700
  101300:	fef42623          	sw	a5,-20(s0)
  101304:	0e40006f          	j	1013e8 <print_dec+0x1a8>
  101308:	fec42703          	lw	a4,-20(s0)
  10130c:	25700793          	li	a5,599
  101310:	00e7fe63          	bgeu	a5,a4,10132c <print_dec+0xec>
  101314:	03600513          	li	a0,54
  101318:	d09ff0ef          	jal	ra,101020 <putchar>
  10131c:	fec42783          	lw	a5,-20(s0)
  101320:	da878793          	addi	a5,a5,-600
  101324:	fef42623          	sw	a5,-20(s0)
  101328:	0c00006f          	j	1013e8 <print_dec+0x1a8>
  10132c:	fec42703          	lw	a4,-20(s0)
  101330:	1f300793          	li	a5,499
  101334:	00e7fe63          	bgeu	a5,a4,101350 <print_dec+0x110>
  101338:	03500513          	li	a0,53
  10133c:	ce5ff0ef          	jal	ra,101020 <putchar>
  101340:	fec42783          	lw	a5,-20(s0)
  101344:	e0c78793          	addi	a5,a5,-500
  101348:	fef42623          	sw	a5,-20(s0)
  10134c:	09c0006f          	j	1013e8 <print_dec+0x1a8>
  101350:	fec42703          	lw	a4,-20(s0)
  101354:	18f00793          	li	a5,399
  101358:	00e7fe63          	bgeu	a5,a4,101374 <print_dec+0x134>
  10135c:	03400513          	li	a0,52
  101360:	cc1ff0ef          	jal	ra,101020 <putchar>
  101364:	fec42783          	lw	a5,-20(s0)
  101368:	e7078793          	addi	a5,a5,-400
  10136c:	fef42623          	sw	a5,-20(s0)
  101370:	0780006f          	j	1013e8 <print_dec+0x1a8>
  101374:	fec42703          	lw	a4,-20(s0)
  101378:	12b00793          	li	a5,299
  10137c:	00e7fe63          	bgeu	a5,a4,101398 <print_dec+0x158>
  101380:	03300513          	li	a0,51
  101384:	c9dff0ef          	jal	ra,101020 <putchar>
  101388:	fec42783          	lw	a5,-20(s0)
  10138c:	ed478793          	addi	a5,a5,-300
  101390:	fef42623          	sw	a5,-20(s0)
  101394:	0540006f          	j	1013e8 <print_dec+0x1a8>
  101398:	fec42703          	lw	a4,-20(s0)
  10139c:	0c700793          	li	a5,199
  1013a0:	00e7fe63          	bgeu	a5,a4,1013bc <print_dec+0x17c>
  1013a4:	03200513          	li	a0,50
  1013a8:	c79ff0ef          	jal	ra,101020 <putchar>
  1013ac:	fec42783          	lw	a5,-20(s0)
  1013b0:	f3878793          	addi	a5,a5,-200
  1013b4:	fef42623          	sw	a5,-20(s0)
  1013b8:	0300006f          	j	1013e8 <print_dec+0x1a8>
  1013bc:	fec42703          	lw	a4,-20(s0)
  1013c0:	06300793          	li	a5,99
  1013c4:	00e7fe63          	bgeu	a5,a4,1013e0 <print_dec+0x1a0>
  1013c8:	03100513          	li	a0,49
  1013cc:	c55ff0ef          	jal	ra,101020 <putchar>
  1013d0:	fec42783          	lw	a5,-20(s0)
  1013d4:	f9c78793          	addi	a5,a5,-100
  1013d8:	fef42623          	sw	a5,-20(s0)
  1013dc:	00c0006f          	j	1013e8 <print_dec+0x1a8>
  1013e0:	03000513          	li	a0,48
  1013e4:	c3dff0ef          	jal	ra,101020 <putchar>
  1013e8:	fec42703          	lw	a4,-20(s0)
  1013ec:	05900793          	li	a5,89
  1013f0:	00e7fe63          	bgeu	a5,a4,10140c <print_dec+0x1cc>
  1013f4:	03900513          	li	a0,57
  1013f8:	c29ff0ef          	jal	ra,101020 <putchar>
  1013fc:	fec42783          	lw	a5,-20(s0)
  101400:	fa678793          	addi	a5,a5,-90
  101404:	fef42623          	sw	a5,-20(s0)
  101408:	12c0006f          	j	101534 <print_dec+0x2f4>
  10140c:	fec42703          	lw	a4,-20(s0)
  101410:	04f00793          	li	a5,79
  101414:	00e7fe63          	bgeu	a5,a4,101430 <print_dec+0x1f0>
  101418:	03800513          	li	a0,56
  10141c:	c05ff0ef          	jal	ra,101020 <putchar>
  101420:	fec42783          	lw	a5,-20(s0)
  101424:	fb078793          	addi	a5,a5,-80
  101428:	fef42623          	sw	a5,-20(s0)
  10142c:	1080006f          	j	101534 <print_dec+0x2f4>
  101430:	fec42703          	lw	a4,-20(s0)
  101434:	04500793          	li	a5,69
  101438:	00e7fe63          	bgeu	a5,a4,101454 <print_dec+0x214>
  10143c:	03700513          	li	a0,55
  101440:	be1ff0ef          	jal	ra,101020 <putchar>
  101444:	fec42783          	lw	a5,-20(s0)
  101448:	fba78793          	addi	a5,a5,-70
  10144c:	fef42623          	sw	a5,-20(s0)
  101450:	0e40006f          	j	101534 <print_dec+0x2f4>
  101454:	fec42703          	lw	a4,-20(s0)
  101458:	03b00793          	li	a5,59
  10145c:	00e7fe63          	bgeu	a5,a4,101478 <print_dec+0x238>
  101460:	03600513          	li	a0,54
  101464:	bbdff0ef          	jal	ra,101020 <putchar>
  101468:	fec42783          	lw	a5,-20(s0)
  10146c:	fc478793          	addi	a5,a5,-60
  101470:	fef42623          	sw	a5,-20(s0)
  101474:	0c00006f          	j	101534 <print_dec+0x2f4>
  101478:	fec42703          	lw	a4,-20(s0)
  10147c:	03100793          	li	a5,49
  101480:	00e7fe63          	bgeu	a5,a4,10149c <print_dec+0x25c>
  101484:	03500513          	li	a0,53
  101488:	b99ff0ef          	jal	ra,101020 <putchar>
  10148c:	fec42783          	lw	a5,-20(s0)
  101490:	fce78793          	addi	a5,a5,-50
  101494:	fef42623          	sw	a5,-20(s0)
  101498:	09c0006f          	j	101534 <print_dec+0x2f4>
  10149c:	fec42703          	lw	a4,-20(s0)
  1014a0:	02700793          	li	a5,39
  1014a4:	00e7fe63          	bgeu	a5,a4,1014c0 <print_dec+0x280>
  1014a8:	03400513          	li	a0,52
  1014ac:	b75ff0ef          	jal	ra,101020 <putchar>
  1014b0:	fec42783          	lw	a5,-20(s0)
  1014b4:	fd878793          	addi	a5,a5,-40
  1014b8:	fef42623          	sw	a5,-20(s0)
  1014bc:	0780006f          	j	101534 <print_dec+0x2f4>
  1014c0:	fec42703          	lw	a4,-20(s0)
  1014c4:	01d00793          	li	a5,29
  1014c8:	00e7fe63          	bgeu	a5,a4,1014e4 <print_dec+0x2a4>
  1014cc:	03300513          	li	a0,51
  1014d0:	b51ff0ef          	jal	ra,101020 <putchar>
  1014d4:	fec42783          	lw	a5,-20(s0)
  1014d8:	fe278793          	addi	a5,a5,-30
  1014dc:	fef42623          	sw	a5,-20(s0)
  1014e0:	0540006f          	j	101534 <print_dec+0x2f4>
  1014e4:	fec42703          	lw	a4,-20(s0)
  1014e8:	01300793          	li	a5,19
  1014ec:	00e7fe63          	bgeu	a5,a4,101508 <print_dec+0x2c8>
  1014f0:	03200513          	li	a0,50
  1014f4:	b2dff0ef          	jal	ra,101020 <putchar>
  1014f8:	fec42783          	lw	a5,-20(s0)
  1014fc:	fec78793          	addi	a5,a5,-20
  101500:	fef42623          	sw	a5,-20(s0)
  101504:	0300006f          	j	101534 <print_dec+0x2f4>
  101508:	fec42703          	lw	a4,-20(s0)
  10150c:	00900793          	li	a5,9
  101510:	00e7fe63          	bgeu	a5,a4,10152c <print_dec+0x2ec>
  101514:	03100513          	li	a0,49
  101518:	b09ff0ef          	jal	ra,101020 <putchar>
  10151c:	fec42783          	lw	a5,-20(s0)
  101520:	ff678793          	addi	a5,a5,-10
  101524:	fef42623          	sw	a5,-20(s0)
  101528:	00c0006f          	j	101534 <print_dec+0x2f4>
  10152c:	03000513          	li	a0,48
  101530:	af1ff0ef          	jal	ra,101020 <putchar>
  101534:	fec42703          	lw	a4,-20(s0)
  101538:	00800793          	li	a5,8
  10153c:	00e7fe63          	bgeu	a5,a4,101558 <print_dec+0x318>
  101540:	03900513          	li	a0,57
  101544:	addff0ef          	jal	ra,101020 <putchar>
  101548:	fec42783          	lw	a5,-20(s0)
  10154c:	ff778793          	addi	a5,a5,-9
  101550:	fef42623          	sw	a5,-20(s0)
  101554:	1280006f          	j	10167c <print_dec+0x43c>
  101558:	fec42703          	lw	a4,-20(s0)
  10155c:	00700793          	li	a5,7
  101560:	00e7fe63          	bgeu	a5,a4,10157c <print_dec+0x33c>
  101564:	03800513          	li	a0,56
  101568:	ab9ff0ef          	jal	ra,101020 <putchar>
  10156c:	fec42783          	lw	a5,-20(s0)
  101570:	ff878793          	addi	a5,a5,-8
  101574:	fef42623          	sw	a5,-20(s0)
  101578:	1040006f          	j	10167c <print_dec+0x43c>
  10157c:	fec42703          	lw	a4,-20(s0)
  101580:	00600793          	li	a5,6
  101584:	00e7fe63          	bgeu	a5,a4,1015a0 <print_dec+0x360>
  101588:	03700513          	li	a0,55
  10158c:	a95ff0ef          	jal	ra,101020 <putchar>
  101590:	fec42783          	lw	a5,-20(s0)
  101594:	ff978793          	addi	a5,a5,-7
  101598:	fef42623          	sw	a5,-20(s0)
  10159c:	0e00006f          	j	10167c <print_dec+0x43c>
  1015a0:	fec42703          	lw	a4,-20(s0)
  1015a4:	00500793          	li	a5,5
  1015a8:	00e7fe63          	bgeu	a5,a4,1015c4 <print_dec+0x384>
  1015ac:	03600513          	li	a0,54
  1015b0:	a71ff0ef          	jal	ra,101020 <putchar>
  1015b4:	fec42783          	lw	a5,-20(s0)
  1015b8:	ffa78793          	addi	a5,a5,-6
  1015bc:	fef42623          	sw	a5,-20(s0)
  1015c0:	0bc0006f          	j	10167c <print_dec+0x43c>
  1015c4:	fec42703          	lw	a4,-20(s0)
  1015c8:	00400793          	li	a5,4
  1015cc:	00e7fe63          	bgeu	a5,a4,1015e8 <print_dec+0x3a8>
  1015d0:	03500513          	li	a0,53
  1015d4:	a4dff0ef          	jal	ra,101020 <putchar>
  1015d8:	fec42783          	lw	a5,-20(s0)
  1015dc:	ffb78793          	addi	a5,a5,-5
  1015e0:	fef42623          	sw	a5,-20(s0)
  1015e4:	0980006f          	j	10167c <print_dec+0x43c>
  1015e8:	fec42703          	lw	a4,-20(s0)
  1015ec:	00300793          	li	a5,3
  1015f0:	00e7fe63          	bgeu	a5,a4,10160c <print_dec+0x3cc>
  1015f4:	03400513          	li	a0,52
  1015f8:	a29ff0ef          	jal	ra,101020 <putchar>
  1015fc:	fec42783          	lw	a5,-20(s0)
  101600:	ffc78793          	addi	a5,a5,-4
  101604:	fef42623          	sw	a5,-20(s0)
  101608:	0740006f          	j	10167c <print_dec+0x43c>
  10160c:	fec42703          	lw	a4,-20(s0)
  101610:	00200793          	li	a5,2
  101614:	00e7fe63          	bgeu	a5,a4,101630 <print_dec+0x3f0>
  101618:	03300513          	li	a0,51
  10161c:	a05ff0ef          	jal	ra,101020 <putchar>
  101620:	fec42783          	lw	a5,-20(s0)
  101624:	ffd78793          	addi	a5,a5,-3
  101628:	fef42623          	sw	a5,-20(s0)
  10162c:	0500006f          	j	10167c <print_dec+0x43c>
  101630:	fec42703          	lw	a4,-20(s0)
  101634:	00100793          	li	a5,1
  101638:	00e7fe63          	bgeu	a5,a4,101654 <print_dec+0x414>
  10163c:	03200513          	li	a0,50
  101640:	9e1ff0ef          	jal	ra,101020 <putchar>
  101644:	fec42783          	lw	a5,-20(s0)
  101648:	ffe78793          	addi	a5,a5,-2
  10164c:	fef42623          	sw	a5,-20(s0)
  101650:	02c0006f          	j	10167c <print_dec+0x43c>
  101654:	fec42783          	lw	a5,-20(s0)
  101658:	00078e63          	beqz	a5,101674 <print_dec+0x434>
  10165c:	03100513          	li	a0,49
  101660:	9c1ff0ef          	jal	ra,101020 <putchar>
  101664:	fec42783          	lw	a5,-20(s0)
  101668:	fff78793          	addi	a5,a5,-1
  10166c:	fef42623          	sw	a5,-20(s0)
  101670:	00c0006f          	j	10167c <print_dec+0x43c>
  101674:	03000513          	li	a0,48
  101678:	9a9ff0ef          	jal	ra,101020 <putchar>
  10167c:	01c12083          	lw	ra,28(sp)
  101680:	01812403          	lw	s0,24(sp)
  101684:	02010113          	addi	sp,sp,32
  101688:	00008067          	ret

0010168c <print_digit>:
  10168c:	fe010113          	addi	sp,sp,-32
  101690:	00112e23          	sw	ra,28(sp)
  101694:	00812c23          	sw	s0,24(sp)
  101698:	02010413          	addi	s0,sp,32
  10169c:	fea42623          	sw	a0,-20(s0)
  1016a0:	fec42783          	lw	a5,-20(s0)
  1016a4:	00f7f793          	andi	a5,a5,15
  1016a8:	fef42623          	sw	a5,-20(s0)
  1016ac:	fec42703          	lw	a4,-20(s0)
  1016b0:	00900793          	li	a5,9
  1016b4:	00f71863          	bne	a4,a5,1016c4 <print_digit+0x38>
  1016b8:	03900513          	li	a0,57
  1016bc:	965ff0ef          	jal	ra,101020 <putchar>
  1016c0:	0e00006f          	j	1017a0 <print_digit+0x114>
  1016c4:	fec42703          	lw	a4,-20(s0)
  1016c8:	00800793          	li	a5,8
  1016cc:	00f71863          	bne	a4,a5,1016dc <print_digit+0x50>
  1016d0:	03800513          	li	a0,56
  1016d4:	94dff0ef          	jal	ra,101020 <putchar>
  1016d8:	0c80006f          	j	1017a0 <print_digit+0x114>
  1016dc:	fec42703          	lw	a4,-20(s0)
  1016e0:	00700793          	li	a5,7
  1016e4:	00f71863          	bne	a4,a5,1016f4 <print_digit+0x68>
  1016e8:	03700513          	li	a0,55
  1016ec:	935ff0ef          	jal	ra,101020 <putchar>
  1016f0:	0b00006f          	j	1017a0 <print_digit+0x114>
  1016f4:	fec42703          	lw	a4,-20(s0)
  1016f8:	00600793          	li	a5,6
  1016fc:	00f71863          	bne	a4,a5,10170c <print_digit+0x80>
  101700:	03600513          	li	a0,54
  101704:	91dff0ef          	jal	ra,101020 <putchar>
  101708:	0980006f          	j	1017a0 <print_digit+0x114>
  10170c:	fec42703          	lw	a4,-20(s0)
  101710:	00500793          	li	a5,5
  101714:	00f71863          	bne	a4,a5,101724 <print_digit+0x98>
  101718:	03500513          	li	a0,53
  10171c:	905ff0ef          	jal	ra,101020 <putchar>
  101720:	0800006f          	j	1017a0 <print_digit+0x114>
  101724:	fec42703          	lw	a4,-20(s0)
  101728:	00400793          	li	a5,4
  10172c:	00f71863          	bne	a4,a5,10173c <print_digit+0xb0>
  101730:	03400513          	li	a0,52
  101734:	8edff0ef          	jal	ra,101020 <putchar>
  101738:	0680006f          	j	1017a0 <print_digit+0x114>
  10173c:	fec42703          	lw	a4,-20(s0)
  101740:	00300793          	li	a5,3
  101744:	00f71863          	bne	a4,a5,101754 <print_digit+0xc8>
  101748:	03300513          	li	a0,51
  10174c:	8d5ff0ef          	jal	ra,101020 <putchar>
  101750:	0500006f          	j	1017a0 <print_digit+0x114>
  101754:	fec42703          	lw	a4,-20(s0)
  101758:	00200793          	li	a5,2
  10175c:	00f71863          	bne	a4,a5,10176c <print_digit+0xe0>
  101760:	03200513          	li	a0,50
  101764:	8bdff0ef          	jal	ra,101020 <putchar>
  101768:	0380006f          	j	1017a0 <print_digit+0x114>
  10176c:	fec42703          	lw	a4,-20(s0)
  101770:	00100793          	li	a5,1
  101774:	00f71863          	bne	a4,a5,101784 <print_digit+0xf8>
  101778:	03100513          	li	a0,49
  10177c:	8a5ff0ef          	jal	ra,101020 <putchar>
  101780:	0200006f          	j	1017a0 <print_digit+0x114>
  101784:	fec42783          	lw	a5,-20(s0)
  101788:	00079863          	bnez	a5,101798 <print_digit+0x10c>
  10178c:	03000513          	li	a0,48
  101790:	891ff0ef          	jal	ra,101020 <putchar>
  101794:	00c0006f          	j	1017a0 <print_digit+0x114>
  101798:	02a00513          	li	a0,42
  10179c:	885ff0ef          	jal	ra,101020 <putchar>
  1017a0:	00000013          	nop
  1017a4:	01c12083          	lw	ra,28(sp)
  1017a8:	01812403          	lw	s0,24(sp)
  1017ac:	02010113          	addi	sp,sp,32
  1017b0:	00008067          	ret

001017b4 <getchar_prompt>:
  1017b4:	fd010113          	addi	sp,sp,-48
  1017b8:	02112623          	sw	ra,44(sp)
  1017bc:	02812423          	sw	s0,40(sp)
  1017c0:	03010413          	addi	s0,sp,48
  1017c4:	fca42e23          	sw	a0,-36(s0)
  1017c8:	fff00793          	li	a5,-1
  1017cc:	fef42623          	sw	a5,-20(s0)
  1017d0:	c00027f3          	rdcycle	a5
  1017d4:	fef42423          	sw	a5,-24(s0)
  1017d8:	fdc42783          	lw	a5,-36(s0)
  1017dc:	06078063          	beqz	a5,10183c <getchar_prompt+0x88>
  1017e0:	fdc42503          	lw	a0,-36(s0)
  1017e4:	88dff0ef          	jal	ra,101070 <print>
  1017e8:	0540006f          	j	10183c <getchar_prompt+0x88>
  1017ec:	c00027f3          	rdcycle	a5
  1017f0:	fef42223          	sw	a5,-28(s0)
  1017f4:	fe442703          	lw	a4,-28(s0)
  1017f8:	fe842783          	lw	a5,-24(s0)
  1017fc:	40f707b3          	sub	a5,a4,a5
  101800:	fef42023          	sw	a5,-32(s0)
  101804:	fe042703          	lw	a4,-32(s0)
  101808:	00b727b7          	lui	a5,0xb72
  10180c:	b0078793          	addi	a5,a5,-1280 # b71b00 <_etext+0xa6ff6c>
  101810:	00e7fe63          	bgeu	a5,a4,10182c <getchar_prompt+0x78>
  101814:	fdc42783          	lw	a5,-36(s0)
  101818:	00078663          	beqz	a5,101824 <getchar_prompt+0x70>
  10181c:	fdc42503          	lw	a0,-36(s0)
  101820:	851ff0ef          	jal	ra,101070 <print>
  101824:	fe442783          	lw	a5,-28(s0)
  101828:	fef42423          	sw	a5,-24(s0)
  10182c:	030007b7          	lui	a5,0x3000
  101830:	07c78793          	addi	a5,a5,124 # 300007c <_etext+0x2efe4e8>
  101834:	0007a783          	lw	a5,0(a5)
  101838:	fef42623          	sw	a5,-20(s0)
  10183c:	fec42703          	lw	a4,-20(s0)
  101840:	fff00793          	li	a5,-1
  101844:	faf704e3          	beq	a4,a5,1017ec <getchar_prompt+0x38>
  101848:	fec42783          	lw	a5,-20(s0)
  10184c:	0ff7f793          	andi	a5,a5,255
  101850:	00078513          	mv	a0,a5
  101854:	02c12083          	lw	ra,44(sp)
  101858:	02812403          	lw	s0,40(sp)
  10185c:	03010113          	addi	sp,sp,48
  101860:	00008067          	ret

00101864 <getchar>:
  101864:	ff010113          	addi	sp,sp,-16
  101868:	00112623          	sw	ra,12(sp)
  10186c:	00812423          	sw	s0,8(sp)
  101870:	01010413          	addi	s0,sp,16
  101874:	00000513          	li	a0,0
  101878:	f3dff0ef          	jal	ra,1017b4 <getchar_prompt>
  10187c:	00050793          	mv	a5,a0
  101880:	00078513          	mv	a0,a5
  101884:	00c12083          	lw	ra,12(sp)
  101888:	00812403          	lw	s0,8(sp)
  10188c:	01010113          	addi	sp,sp,16
  101890:	00008067          	ret

00101894 <cmd_read_flash_regs_print>:
  101894:	fd010113          	addi	sp,sp,-48
  101898:	02112623          	sw	ra,44(sp)
  10189c:	02812423          	sw	s0,40(sp)
  1018a0:	03010413          	addi	s0,sp,48
  1018a4:	fca42e23          	sw	a0,-36(s0)
  1018a8:	fcb42c23          	sw	a1,-40(s0)
  1018ac:	fdc42703          	lw	a4,-36(s0)
  1018b0:	650007b7          	lui	a5,0x65000
  1018b4:	00f767b3          	or	a5,a4,a5
  1018b8:	fef42423          	sw	a5,-24(s0)
  1018bc:	fe042623          	sw	zero,-20(s0)
  1018c0:	fe840793          	addi	a5,s0,-24
  1018c4:	00000613          	li	a2,0
  1018c8:	00600593          	li	a1,6
  1018cc:	00078513          	mv	a0,a5
  1018d0:	d48ff0ef          	jal	ra,100e18 <flashio>
  1018d4:	001027b7          	lui	a5,0x102
  1018d8:	b2878513          	addi	a0,a5,-1240 # 101b28 <main+0xd0>
  1018dc:	f94ff0ef          	jal	ra,101070 <print>
  1018e0:	00600593          	li	a1,6
  1018e4:	fdc42503          	lw	a0,-36(s0)
  1018e8:	8d1ff0ef          	jal	ra,1011b8 <print_hex>
  1018ec:	001027b7          	lui	a5,0x102
  1018f0:	b2c78513          	addi	a0,a5,-1236 # 101b2c <main+0xd4>
  1018f4:	f7cff0ef          	jal	ra,101070 <print>
  1018f8:	fd842503          	lw	a0,-40(s0)
  1018fc:	f74ff0ef          	jal	ra,101070 <print>
  101900:	001027b7          	lui	a5,0x102
  101904:	b3078513          	addi	a0,a5,-1232 # 101b30 <main+0xd8>
  101908:	f68ff0ef          	jal	ra,101070 <print>
  10190c:	fec42783          	lw	a5,-20(s0)
  101910:	00200593          	li	a1,2
  101914:	00078513          	mv	a0,a5
  101918:	8a1ff0ef          	jal	ra,1011b8 <print_hex>
  10191c:	001027b7          	lui	a5,0x102
  101920:	b3478513          	addi	a0,a5,-1228 # 101b34 <main+0xdc>
  101924:	f4cff0ef          	jal	ra,101070 <print>
  101928:	00000013          	nop
  10192c:	02c12083          	lw	ra,44(sp)
  101930:	02812403          	lw	s0,40(sp)
  101934:	03010113          	addi	sp,sp,48
  101938:	00008067          	ret

0010193c <cmd_echo>:
  10193c:	fe010113          	addi	sp,sp,-32
  101940:	00112e23          	sw	ra,28(sp)
  101944:	00812c23          	sw	s0,24(sp)
  101948:	02010413          	addi	s0,sp,32
  10194c:	001027b7          	lui	a5,0x102
  101950:	b3878513          	addi	a0,a5,-1224 # 101b38 <main+0xe0>
  101954:	f1cff0ef          	jal	ra,101070 <print>
  101958:	0280006f          	j	101980 <cmd_echo+0x44>
  10195c:	fef44703          	lbu	a4,-17(s0)
  101960:	00d00793          	li	a5,13
  101964:	00f71863          	bne	a4,a5,101974 <cmd_echo+0x38>
  101968:	00a00513          	li	a0,10
  10196c:	eb4ff0ef          	jal	ra,101020 <putchar>
  101970:	0100006f          	j	101980 <cmd_echo+0x44>
  101974:	fef44783          	lbu	a5,-17(s0)
  101978:	00078513          	mv	a0,a5
  10197c:	ea4ff0ef          	jal	ra,101020 <putchar>
  101980:	ee5ff0ef          	jal	ra,101864 <getchar>
  101984:	00050793          	mv	a5,a0
  101988:	fef407a3          	sb	a5,-17(s0)
  10198c:	fef44703          	lbu	a4,-17(s0)
  101990:	02100793          	li	a5,33
  101994:	fcf714e3          	bne	a4,a5,10195c <cmd_echo+0x20>
  101998:	00000013          	nop
  10199c:	00000013          	nop
  1019a0:	01c12083          	lw	ra,28(sp)
  1019a4:	01812403          	lw	s0,24(sp)
  1019a8:	02010113          	addi	sp,sp,32
  1019ac:	00008067          	ret

001019b0 <cmd_read_flash_regs>:
  1019b0:	ff010113          	addi	sp,sp,-16
  1019b4:	00112623          	sw	ra,12(sp)
  1019b8:	00812423          	sw	s0,8(sp)
  1019bc:	01010413          	addi	s0,sp,16
  1019c0:	001027b7          	lui	a5,0x102
  1019c4:	b5878593          	addi	a1,a5,-1192 # 101b58 <main+0x100>
  1019c8:	00800537          	lui	a0,0x800
  1019cc:	ec9ff0ef          	jal	ra,101894 <cmd_read_flash_regs_print>
  1019d0:	001027b7          	lui	a5,0x102
  1019d4:	b6078593          	addi	a1,a5,-1184 # 101b60 <main+0x108>
  1019d8:	008007b7          	lui	a5,0x800
  1019dc:	00278513          	addi	a0,a5,2 # 800002 <_etext+0x6fe46e>
  1019e0:	eb5ff0ef          	jal	ra,101894 <cmd_read_flash_regs_print>
  1019e4:	001027b7          	lui	a5,0x102
  1019e8:	b6878593          	addi	a1,a5,-1176 # 101b68 <main+0x110>
  1019ec:	008007b7          	lui	a5,0x800
  1019f0:	00378513          	addi	a0,a5,3 # 800003 <_etext+0x6fe46f>
  1019f4:	ea1ff0ef          	jal	ra,101894 <cmd_read_flash_regs_print>
  1019f8:	001027b7          	lui	a5,0x102
  1019fc:	b7078593          	addi	a1,a5,-1168 # 101b70 <main+0x118>
  101a00:	008007b7          	lui	a5,0x800
  101a04:	00478513          	addi	a0,a5,4 # 800004 <_etext+0x6fe470>
  101a08:	e8dff0ef          	jal	ra,101894 <cmd_read_flash_regs_print>
  101a0c:	00000013          	nop
  101a10:	00c12083          	lw	ra,12(sp)
  101a14:	00812403          	lw	s0,8(sp)
  101a18:	01010113          	addi	sp,sp,16
  101a1c:	00008067          	ret

00101a20 <read_rtc>:
  101a20:	fe010113          	addi	sp,sp,-32
  101a24:	00112e23          	sw	ra,28(sp)
  101a28:	00812c23          	sw	s0,24(sp)
  101a2c:	02010413          	addi	s0,sp,32
  101a30:	00200593          	li	a1,2
  101a34:	0a200513          	li	a0,162
  101a38:	bddfe0ef          	jal	ra,100614 <read_i2c_slave_byte>
  101a3c:	00050793          	mv	a5,a0
  101a40:	fef407a3          	sb	a5,-17(s0)
  101a44:	00000013          	nop
  101a48:	01c12083          	lw	ra,28(sp)
  101a4c:	01812403          	lw	s0,24(sp)
  101a50:	02010113          	addi	sp,sp,32
  101a54:	00008067          	ret

00101a58 <main>:
  101a58:	fe010113          	addi	sp,sp,-32
  101a5c:	00112e23          	sw	ra,28(sp)
  101a60:	00812c23          	sw	s0,24(sp)
  101a64:	02010413          	addi	s0,sp,32
  101a68:	00800513          	li	a0,8
  101a6c:	d20ff0ef          	jal	ra,100f8c <set_flash_latency>
  101a70:	030007b7          	lui	a5,0x3000
  101a74:	00478793          	addi	a5,a5,4 # 3000004 <_etext+0x2efe470>
  101a78:	0007a023          	sw	zero,0(a5)
  101a7c:	030007b7          	lui	a5,0x3000
  101a80:	00100713          	li	a4,1
  101a84:	00e7a023          	sw	a4,0(a5) # 3000000 <_etext+0x2efe46c>
  101a88:	fe042623          	sw	zero,-20(s0)
  101a8c:	0100006f          	j	101a9c <main+0x44>
  101a90:	fec42783          	lw	a5,-20(s0)
  101a94:	00178793          	addi	a5,a5,1
  101a98:	fef42623          	sw	a5,-20(s0)
  101a9c:	fec42703          	lw	a4,-20(s0)
  101aa0:	3e700793          	li	a5,999
  101aa4:	fee7f6e3          	bgeu	a5,a4,101a90 <main+0x38>
  101aa8:	030007b7          	lui	a5,0x3000
  101aac:	00800713          	li	a4,8
  101ab0:	00e7a023          	sw	a4,0(a5) # 3000000 <_etext+0x2efe46c>
  101ab4:	08000513          	li	a0,128
  101ab8:	ec8fe0ef          	jal	ra,100180 <i2c_init>
  101abc:	030007b7          	lui	a5,0x3000
  101ac0:	00b00713          	li	a4,11
  101ac4:	00e7a023          	sw	a4,0(a5) # 3000000 <_etext+0x2efe46c>
  101ac8:	fe040423          	sb	zero,-24(s0)
  101acc:	07700613          	li	a2,119
  101ad0:	15000593          	li	a1,336
  101ad4:	0a000513          	li	a0,160
  101ad8:	971fe0ef          	jal	ra,100448 <write_i2c_slave_byte_eeprom>
  101adc:	030007b7          	lui	a5,0x3000
  101ae0:	00300713          	li	a4,3
  101ae4:	00e7a023          	sw	a4,0(a5) # 3000000 <_etext+0x2efe46c>
  101ae8:	fe840793          	addi	a5,s0,-24
  101aec:	00078613          	mv	a2,a5
  101af0:	15000593          	li	a1,336
  101af4:	0a000513          	li	a0,160
  101af8:	ea9fe0ef          	jal	ra,1009a0 <read_i2c_slave_byte_eeprom>
  101afc:	030007b7          	lui	a5,0x3000
  101b00:	00f00713          	li	a4,15
  101b04:	00e7a023          	sw	a4,0(a5) # 3000000 <_etext+0x2efe46c>
  101b08:	0000006f          	j	101b08 <main+0xb0>
  101b0c:	3130                	fld	fa2,96(a0)
  101b0e:	3332                	fld	ft6,296(sp)
  101b10:	3534                	fld	fa3,104(a0)
  101b12:	3736                	fld	fa4,360(sp)
  101b14:	3938                	fld	fa4,112(a0)
  101b16:	6261                	lui	tp,0x18
  101b18:	66656463          	bltu	a0,t1,102180 <_etext+0x5ec>
  101b1c:	0000                	unimp
  101b1e:	0000                	unimp
  101b20:	5245564f          	fnmadd.d	fa2,fa0,ft4,fa0,unknown
  101b24:	0000                	unimp
  101b26:	0000                	unimp
  101b28:	7830                	flw	fa2,112(s0)
  101b2a:	0000                	unimp
  101b2c:	0020                	addi	s0,sp,8
  101b2e:	0000                	unimp
  101b30:	3020                	fld	fs0,96(s0)
  101b32:	0078                	addi	a4,sp,12
  101b34:	2020                	fld	fs0,64(s0)
  101b36:	0000                	unimp
  101b38:	6552                	flw	fa0,20(sp)
  101b3a:	7574                	flw	fa3,108(a0)
  101b3c:	6e72                	flw	ft8,28(sp)
  101b3e:	7420                	flw	fs0,104(s0)
  101b40:	656d206f          	j	1d4196 <_etext+0xd2602>
  101b44:	756e                	flw	fa0,248(sp)
  101b46:	6220                	flw	fs0,64(a2)
  101b48:	2079                	jal	101bd6 <_etext+0x42>
  101b4a:	646e6573          	csrrsi	a0,0x646,28
  101b4e:	6e69                	lui	t3,0x1a
  101b50:	21272067          	0x21272067
  101b54:	000a0a27          	0xa0a27
  101b58:	56315253          	0x56315253
  101b5c:	0000                	unimp
  101b5e:	0000                	unimp
  101b60:	56315243          	fmadd.q	ft4,ft2,ft3,fa0,unknown
  101b64:	0000                	unimp
  101b66:	0000                	unimp
  101b68:	56325243          	fmadd.q	ft4,ft4,ft3,fa0,unknown
  101b6c:	0000                	unimp
  101b6e:	0000                	unimp
  101b70:	56335243          	fmadd.q	ft4,ft6,ft3,fa0,unknown
  101b74:	0000                	unimp
	...

00101b78 <I2C_PRE_LO>:
  101b78:	00d4 0300                                   ....

00101b7c <I2C_PRE_HI>:
  101b7c:	00d5 0300                                   ....

00101b80 <I2C_CTRL>:
  101b80:	00d6 0300                                   ....

00101b84 <I2C_TX>:
  101b84:	00dc 0300                                   ....

00101b88 <I2C_RX>:
  101b88:	00dc 0300                                   ....

00101b8c <I2C_CMD>:
  101b8c:	00d8 0300                                   ....

00101b90 <I2C_STAT>:
  101b90:	00d8 0300                                   ....
